(dp0
Vzt3
p1
(lp2
V\u043c, \u043d, \u04a3 \u043c
p3
aI1
asVsy7
p4
(lp5
V\u0443, \u0438, \u0439,\u0440
p6
aI0
asVsy4
p7
(lp8
V\u0431, \u0432, \u0433, \u0434, \u043f, \u0442, \u043a, \u0444, \u0448, \u0441, \u049b, \u0445, \u0447, \u0446, \u04bb
p9
aI1
asVus6
p10
(lp11
V\u04d9,\u04e9,\u04af,\u0456,\u0435,\u0430,\u044b,\u043e,\u044d,\u044f,\u044e
p12
aI0
asVsn6
p13
(lp14
V\u04d9,\u04e9,\u04af,\u0456,\u0435,\u0430,\u044b,\u043e,\u044d,\u044f,\u044e
p15
aI0
asVsn7
p16
(lp17
V\u0443, \u0438, \u0439,\u0440
p18
aI0
asVsn4
p19
(lp20
V\u0431, \u0432, \u0433, \u0434, \u043f, \u0442, \u043a, \u0444, \u0448, \u0441, \u049b, \u0445, \u0447, \u0446, \u04bb
p21
aI1
asVsn5
p22
(lp23
V\u0436, \u0437 , \u043b
p24
aI1
asVsn2
p25
(lp26
V\u0443, \u0438, \u0439,\u0440
p27
aI1
asVsn3
p28
(lp29
V\u043c, \u043d, \u04a3
p30
aI1
asVsy5
p31
(lp32
V\u0436, \u0437 , \u043b
p33
aI1
asVsn1
p34
(lp35
V\u04d9,\u04e9,\u04af,\u0456,\u0435,\u0430,\u044b,\u043e,\u044d,\u044f,\u044e
p36
aI1
asVzt2
p37
(lp38
V\u0443, \u0438, \u0439,\u0440
p39
aI1
asVsy9
p40
(lp41
V\u0431, \u0432, \u0433, \u0434, \u043f, \u0442, \u043a, \u0444, \u0448, \u0441, \u049b, \u0445, \u0447, \u0446, \u04bb
p42
aI0
asVsy8
p43
(lp44
V\u043c, \u043d, \u04a3
p45
aI0
asVsn8
p46
(lp47
V\u043c, \u043d, \u04a3
p48
aI0
asVsn9
p49
(lp50
V\u0431, \u0432, \u0433, \u0434, \u043f, \u0442, \u043a, \u0444, \u0448, \u0441, \u049b, \u0445, \u0447, \u0446, \u04bb
p51
aI0
asVet2
p52
(lp53
V\u04bb,\u04a3,\u0493,\u04b1,\u043d,\u0433,\u049b,\u0446,\u043a,\u043d,\u0433,\u0448,\u0449,\u0437,\u0445,\u0444,\u0432,\u043f,\u0440,\u043b,\u0434,\u0436,\u0447,\u0441,\u043c,\u0442,\u0431,\u0439
p54
aI1
asVet3
p55
(lp56
V\u04bb,\u04a3,\u0493,\u04b1,\u043d,\u0433,\u049b,\u0446,\u043a,\u043d,\u0433,\u0448,\u0449,\u0437,\u0445,\u0444,\u0432,\u043f,\u0440,\u043b,\u0434,\u0436,\u0447,\u0441,\u043c,\u0442,\u0431,\u0439
p57
aI1
asVsh2
p58
(lp59
V\u0443, \u0438, \u0439,\u0440
p60
aI1
asVet1
p61
(lp62
V\u04bb,\u04a3,\u0493,\u04b1,\u043d,\u0433,\u049b,\u0446,\u043a,\u043d,\u0433,\u0448,\u0449,\u0437,\u0445,\u0444,\u0432,\u043f,\u0440,\u043b,\u0434,\u0436,\u0447,\u0441,\u043c,\u0442,\u0431,\u0439
p63
aI1
asVet6
p64
(lp65
V\u04bb,\u04a3,\u0493,\u04b1,\u043d,\u0433,\u049b,\u0446,\u043a,\u043d,\u0433,\u0448,\u0449,\u0437,\u0445,\u0444,\u0432,\u043f,\u0440,\u043b,\u0434,\u0436,\u0447,\u0441,\u043c,\u0442,\u0431,\u0439
p66
aI0
asVet7
p67
(lp68
V\u04bb,\u04a3,\u0493,\u04b1,\u043d,\u0433,\u049b,\u0446,\u043a,\u043d,\u0433,\u0448,\u0449,\u0437,\u0445,\u0444,\u0432,\u043f,\u0440,\u043b,\u0434,\u0436,\u0447,\u0441,\u043c,\u0442,\u0431,\u0439
p69
aI0
asVet4
p70
(lp71
V\u04d9,\u0456,\u04af,\u04b1,\u04e9,\u0443,\u0435,\u044b,\u0430,\u043e,\u044d,\u044f,\u0438,\u044e \u0430
p72
aI1
asVet5
p73
(lp74
V\u04bb,\u04a3,\u0493,\u04b1,\u043d,\u0433,\u049b,\u0446,\u043a,\u043d,\u0433,\u0448,\u0449,\u0437,\u0445,\u0444,\u0432,\u043f,\u0440,\u043b,\u0434,\u0436,\u0447,\u0441,\u043c,\u0442,\u0431,\u0439
p75
aI0
asVsh8
p76
(lp77
V\u043c, \u043d, \u04a3
p78
aI0
asVsh9
p79
(lp80
V\u0431, \u0432, \u0433, \u0434, \u043f, \u0442, \u043a, \u0444, \u0448, \u0441, \u049b, \u0445, \u0447, \u0446, \u04bb
p81
aI0
asVet8
p82
(lp83
V\u04d9,\u0456,\u04af,\u04b1,\u04e9,\u0443,\u0435,\u044b,\u0430,\u043e,\u044d,\u044f,\u0438,\u044e \u0430
p84
aI0
asVela
p85
(lp86
V\u0436, \u0437 , \u043b
p87
aI0
asVzta
p88
(lp89
V\u0436, \u0437 , \u043b, \u044c
p90
aI0
asVus5
p91
(lp92
V\u0436, \u0437 , \u043b
p93
aI1
asVus9
p94
(lp95
V\u0431, \u0432, \u0433, \u0434, \u043f, \u0442, \u043a, \u0444, \u0448, \u0441, \u049b, \u0445, \u0447, \u0446, \u04bb
p96
aI0
asVsy3
p97
(lp98
V\u043c, \u043d, \u04a3
p99
aI1
asVus4
p100
(lp101
V\u0431, \u0432, \u0433, \u0434, \u043f, \u0442, \u043a, \u0444, \u0448, \u0441, \u049b, \u0445, \u0447, \u0446, \u04bb
p102
aI1
asVzt5
p103
(lp104
V\u0436, \u0437 , \u043b, \u044c
p105
aI1
asVzt8
p106
(lp107
V\u043c, \u043d, \u04a3
p108
aI0
asVod8
p109
(lp110
V\u043c, \u043d, \u04a3
p111
aI0
asVod9
p112
(lp113
V\u0431, \u0432, \u0433, \u0434, \u043f, \u0442, \u043a, \u0444, \u0448, \u0441, \u049b, \u0445, \u0447, \u0446, \u04bb
p114
aI0
asVsya
p115
(lp116
V\u0436, \u0437 , \u043b
p117
aI0
asVusa
p118
(lp119
V\u0436, \u0437 , \u043b
p120
aI0
asVsh1
p121
(lp122
V\u04d9,\u04e9,\u04af,\u0456,\u0435,\u0430,\u044b,\u043e,\u044d,\u044f,\u044e
p123
aI1
asVod1
p124
(lp125
V\u04d9,\u04e9,\u04af,\u0456,\u0435,\u0430,\u044b,\u043e,\u044d,\u044f,\u044e
p126
aI1
asVod2
p127
(lp128
V\u0443, \u0438, \u0439,\u0440
p129
aI1
asVod3
p130
(lp131
V\u043c, \u043d, \u04a3
p132
aI1
asVod4
p133
(lp134
V\u0431, \u0432, \u0433, \u0434, \u043f, \u0442, \u043a, \u0444, \u0448, \u0441, \u049b, \u0445, \u0447, \u0446, \u04bb
p135
aI1
asVod6
p136
(lp137
V\u04d9,\u04e9,\u04af,\u0456,\u0435,\u0430,\u044b,\u043e,\u044d,\u044f,\u044e
p138
aI0
asVod7
p139
(lp140
V\u0443, \u0438, \u0439,\u0440
p141
aI0
asVsy6
p142
(lp143
V\u04d9,\u04e9,\u04af,\u0456,\u0435,\u0430,\u044b,\u043e,\u044d,\u044f,\u044e
p144
aI0
asVsna
p145
(lp146
V\u0436, \u0437 , \u043b
p147
aI0
asVsh3
p148
(lp149
V\u043c, \u043d, \u04a3
p150
aI1
asVzt6
p151
(lp152
V\u04d9,\u04e9,\u04af,\u0456,\u0435,\u0430,\u044b,\u043e,\u044d,\u044f,\u044e
p153
aI0
asVzt4
p154
(lp155
V\u0431, \u0432, \u0433, \u0434, \u043f, \u0442, \u043a, \u0444, \u0448, \u0441, \u049b, \u0445, \u0447, \u0446, \u04bb
p156
aI1
asVsh4
p157
(lp158
V\u0431, \u0432, \u0433, \u0434, \u043f, \u0442, \u043a, \u0444, \u0448, \u0441, \u049b, \u0445, \u0447, \u0446, \u04bb
p159
aI1
asVsh6
p160
(lp161
V\u04d9,\u04e9,\u04af,\u0456,\u0435,\u0430,\u044b,\u043e,\u044d,\u044f,\u044e
p162
aI0
asVsh5
p163
(lp164
V\u0436, \u0437 , \u043b
p165
aI1
asVes7
p166
(lp167
V\u043c, \u043d, \u04a3
p168
aI0
asVes6
p169
(lp170
V\u0443, \u0438, \u0439,\u0440
p171
aI0
asVes5
p172
(lp173
V\u04d9,\u04e9,\u04af,\u0456,\u0435,\u0430,\u044b,\u043e,\u044d,\u044f,\u044e
p174
aI0
asVes4
p175
(lp176
V\u0436, \u0437 , \u043b
p177
aI1
asVes3
p178
(lp179
V\u043c, \u043d, \u04a3
p180
aI1
asVes2
p181
(lp182
V\u0443, \u0438, \u0439,\u0440
p183
aI1
asVes1
p184
(lp185
V\u04d9,\u04e9,\u04af,\u0456,\u0435,\u0430,\u044b,\u043e,\u044d,\u044f,\u044e
p186
aI1
asVsy2
p187
(lp188
V\u0443, \u0438, \u0439,\u0440
p189
aI1
asVsh7
p190
(lp191
V\u0443, \u0438, \u0439,\u0440
p192
aI0
asVsy1
p193
(lp194
V\u04d9,\u04e9,\u04af,\u0456,\u0435,\u0430,\u044b,\u043e,\u044d,\u044f,\u044e
p195
aI1
asVes8
p196
(lp197
V\u0436, \u0437 , \u043b
p198
aI0
asVus7
p199
(lp200
V\u0443, \u0438, \u0439,\u0440
p201
aI0
asVsha
p202
(lp203
V\u0436, \u0437 , \u043b
p204
aI0
asVel8
p205
(lp206
V\u043c, \u043d, \u04a3
p207
aI0
asVel9
p208
(lp209
V\u0431, \u0432, \u0433, \u0434, \u043f, \u0442, \u043a, \u0444, \u0448, \u0441, \u049b, \u0445, \u0447, \u0446, \u04bb
p210
aI0
asVus3
p211
(lp212
V\u043c, \u043d, \u04a3
p213
aI1
asVus2
p214
(lp215
V\u0443, \u0438, \u0439,\u0440
p216
aI1
asVus1
p217
(lp218
V\u04d9,\u04e9,\u04af,\u0456,\u0435,\u0430,\u044b,\u043e,\u044d,\u044f,\u044e
p219
aI1
asVzt9
p220
(lp221
V\u0431, \u0432, \u0433, \u0434, \u043f, \u0442, \u043a, \u0444, \u0448, \u0441, \u049b, \u0445, \u0447, \u0446, \u04bb
p222
aI0
asVel2
p223
(lp224
V\u0443, \u0438, \u0439,\u0440
p225
aI1
asVel3
p226
(lp227
V\u043c, \u043d, \u04a3
p228
aI1
asVzt7
p229
(lp230
V\u0443, \u0438, \u0439,\u0440
p231
aI0
asVus8
p232
(lp233
V\u043c, \u043d, \u04a3
p234
aI0
asVzt1
p235
(lp236
V\u04d9,\u04e9,\u04af,\u0456,\u0435,\u0430,\u044b,\u043e,\u044d,\u044f,\u044e
p237
aI1
asVel7
p238
(lp239
V\u0443, \u0438, \u0439,\u0440
p240
aI0
asVel4
p241
(lp242
V\u0431, \u0432, \u0433, \u0434, \u043f, \u0442, \u043a, \u0444, \u0448, \u0441, \u049b, \u0445, \u0447, \u0446, \u04bb
p243
aI1
asVel5
p244
(lp245
V\u0436, \u0437 , \u043b
p246
aI1
as.