(dp0
V\u0436\u0435\u043a\u0435-\u0436\u0435\u043a\u0435
p1
(lp2
S'2'
p3
asVy\u0439\u0434\u0435\u043a-\u0442y\u0439\u0434\u0435\u043a
p4
(lp5
g3
asV\u049b\u044b\u0437\u0434\u044b-\u049b\u044b\u0437\u0434\u044b
p6
(lp7
g3
asV\u049b\u0438\u049b\u044b\u043b-\u0441\u0438\u049b\u044b\u043b
p8
(lp9
g3
asV\u0442\u0438\u044b\u043d-\u043f\u0438\u044b\u043d
p10
(lp11
g3
asV\u043c\u0438\u0442\u044b\u04a3-\u043c\u0438\u0442\u044b\u04a3
p12
(lp13
g3
asV\u0441\u0430\u043f-\u0441\u0430\u0443
p14
(lp15
g3
asV\u0442\u044b\u049b-\u0442\u044b\u049b
p16
(lp17
g3
asV\u043c\u04d9\u043a\u0443-\u0441\u04d9\u043a\u0443
p18
(lp19
g3
asV\u0436\u044b\u043b\u043c\u0430-\u0436\u044b\u043b\u043c\u0430
p20
(lp21
g3
asV\u0456\u0441-\u043c\u0456\u0441
p22
(lp23
g3
asV\u0443\u043c\u0430\u049b-\u0448\u0443\u043c\u0430\u049b
p24
(lp25
g3
asV\u0430\u043b\u0430\u0441-\u0430\u043b\u0430\u0441
p26
(lp27
g3
asV\u0431\u043e\u0440\u0441\u0430\u04a3-\u0431\u043e\u0440\u0441\u0430\u04a3
p28
(lp29
g3
asV\u0431\u04d9\u043b\u0435\u043d-\u0442y\u0433\u0435\u043d
p30
(lp31
g3
asV\u0437\u0456\u043a-\u0437\u0456\u043a
p32
(lp33
g3
asV\u049b\u043e\u049b\u0430\u04a3-\u0441\u043e\u049b\u0430\u04a3\u049b
p34
(lp35
g3
asV\u0441\u0435\u043d-\u043f\u0435\u043d
p36
(lp37
g3
asV\u0441\u0430\u043f-\u0441\u0430\u043f
p38
(lp39
g3
asV\u04b1\u04a3\u0493\u044b\u0440-\u0448\u04b1\u04a3\u0493\u044b\u0440
p40
(lp41
g3
asV\u044b\u0441\u044b\u043b\u0434\u0430\u043f-\u043f\u044b\u0441\u044b\u043b\u0434\u0430\u043f
p42
(lp43
g3
asV\u043f\u0430\u0448\u044b\u0440-\u043f\u0430\u0448\u044b\u0440
p44
(lp45
g3
asV\u0441\u044b\u0440\u0442-\u0441\u044b\u0440\u0442
p46
(lp47
g3
asV\u04d9\u0441\u0442\u0456\u043d-\u04d9\u0441\u0442\u0456\u043d
p48
(lp49
g3
asV\u0431\u0435\u0442\u043f\u0435-\u0431\u0435\u0442
p50
(lp51
g3
asV\u0448\u0430\u049b-\u0448\u0430\u049b
p52
(lp53
g3
asV\u0441\u04e9\u0437\u0431\u0435-\u0441\u04e9\u0437
p54
(lp55
g3
asV\u0431\u04b1\u0440\u0448\u0430\u049b-\u0431\u04b1\u0440\u0448\u0430\u049b
p56
(lp57
g3
asV\u0448\u04b1\u043b\u0493\u0438-\u0448\u04b1\u043b\u0493\u0438
p58
(lp59
g3
asV\u0430\u0440\u0448\u044b\u043d\u0434\u0430\u0439-\u0430\u0440\u0448\u044b\u043d\u0434\u0430\u0439
p60
(lp61
g3
asV\u043e\u0442\u044b\u0440\u044b\u043f-\u043e\u0442\u044b\u0440\u044b\u043f
p62
(lp63
g3
asV\u04e9\u0437\u0456\u043c\u0435-\u04e9\u0437\u0456\u043c
p64
(lp65
g3
asV\u049b\u0438\u0441\u0430\u044f-\u049b\u0438\u0441\u0430\u044f
p66
(lp67
g3
asV\u0430\u043f\u0430\u049b-\u0441\u0430\u043f\u0430\u049b
p68
(lp69
g3
asV\u0430\u043d\u0430\u0493\u044b-\u043c\u0430\u043d\u0430\u0493\u044b
p70
(lp71
g3
asV\u0436\u0435\u043c\u0435-\u0436\u0435\u043c
p72
(lp73
g3
asV\u0435\u0441\u0435\u043f\u0442\u0435\u0439-\u0435\u0441\u0435\u043f\u0442\u0435\u0439
p74
(lp75
g3
asV\u0448\u043e\u043f-\u0448\u043e\u0448\u0430\u049b
p76
(lp77
g3
asV\u0448\u044b\u0440-\u043f\u044b\u0440
p78
(lp79
g3
asV\u0436\u0430\u043b-\u0436\u0430\u043b
p80
(lp81
g3
asV\u049b\u043e\u049b\u0430\u04a3-\u049b\u043e\u049b\u0430\u04a3
p82
(lp83
g3
asV\u043c\u043e\u043d\u0448\u0430\u049b-\u043c\u043e\u043d\u0448\u0430\u049b
p84
(lp85
g3
asV\u043e\u0440\u0430\u043f-\u043e\u0440\u0430\u043f
p86
(lp87
g3
asV\u0431\u0430\u0441\u0430\u0440-\u0431\u0430\u0441\u043f\u0430\u0441
p88
(lp89
g3
asV\u043c\u044b\u043b\u0436\u0430-\u043c\u044b\u043b\u0436\u0430
p90
(lp91
g3
asV\u049b\u0430\u0440\u0430\u04a3-\u049b\u04b1\u0440\u0430\u04a3
p92
(lp93
g3
asV\u049b\u043e\u0441-\u049b\u043e\u0441
p94
(lp95
g3
asV\u0431\u0430\u0440\u0431\u0430\u04a3-\u0431\u0430\u0440\u0431\u0430\u04a3
p96
(lp97
g3
asV\u0430\u0448\u0430\u043b\u0430\u043f-\u0430\u0448\u0430\u043b\u0430\u043f
p98
(lp99
g3
asV\u0437\u0456\u043f-\u0437\u0456\u043b
p100
(lp101
g3
asV\u049b\u043e\u0436-\u049b\u043e\u0436
p102
(lp103
g3
asV\u044b\u0440\u0493\u0430\u043b\u044b\u043f-\u0436\u044b\u0440\u0493\u0430\u043b\u044b\u043f
p104
(lp105
g3
asV\u0430\u0440\u0431\u0430-\u0430\u0440\u0431\u0430
p106
(lp107
g3
asV\u049b\u0430\u043b\u0431\u0430\u04a3-\u049b\u04b1\u043b\u0431\u0430\u04a3
p108
(lp109
g3
asV\u044b\u0440\u0436\u0430\u04a3-\u044b\u0440\u0436\u0430\u04a3
p110
(lp111
g3
asV\u049b\u043e\u049b\u044b\u0440-\u0441\u043e\u049b\u044b\u0440
p112
(lp113
g3
asV\u049b\u04b1\u0440\u0430\u049b-\u049b\u04b1\u0440\u0430\u049b
p114
(lp115
g3
asV\u0430\u0440\u0430\u0437-\u049b\u04b1\u0440\u0430\u0437
p116
(lp117
g3
asV\u0441\u043e\u043b\u049b-\u0441\u043e\u043b\u049b
p118
(lp119
g3
asV\u043ay\u043c\u0431\u0456\u0440-\u043ay\u043c\u0431\u0456\u0440
p120
(lp121
g3
asV\u049b\u04b1\u043b\u0434\u0438-\u0441\u04b1\u043b\u0434\u0438
p122
(lp123
g3
asV\u0430\u0443\u0434\u0430\u043d-\u0430\u0443\u0434\u0430\u043d
p124
(lp125
g3
asV\u043a\u0456\u0440\u0442\u0456\u04a3-\u043a\u0456\u0440\u0442\u0456\u04a3
p126
(lp127
g3
asV\u0442\u043e\u043c-\u0442\u043e\u043c
p128
(lp129
g3
asV\u043f\u0435\u0440\u0456-\u0441\u0435\u0440\u0456
p130
(lp131
g3
asV\u0434y\u0441\u0456\u0440-\u0434y\u0441\u0456\u0440
p132
(lp133
g3
asV\u04e9\u0442\u0456\u0440\u0456\u043a\u0442\u0435\u043d-\u04e9\u0442\u0456\u0440\u0456\u043a
p134
(lp135
g3
asV\u049b\u0430\u043b\u0448-\u049b\u0430\u043b\u0448
p136
(lp137
g3
asV\u0456\u043f-\u0456\u0440\u0456
p138
(lp139
g3
asV\u0441\u043e\u0440\u0430\u0439\u0493\u0430\u043d-\u0441\u043e\u0440\u0430\u0439\u0493\u0430\u043d
p140
(lp141
g3
asV\u0430\u0439\u049b\u0430\u043f-\u0448\u0430\u0439\u049b\u0430\u043f
p142
(lp143
g3
asV\u0435\u0433\u0456\u0437-\u0442\u0435\u0433\u0456\u0437
p144
(lp145
g3
asV\u0431\u04b1\u043d\u0434\u0430\u0439-\u0431\u04b1\u043d\u0434\u0430\u0439
p146
(lp147
g3
asV\u0441\u0430\u0440\u0442-\u0441\u0430\u0440\u0442
p148
(lp149
g3
asV\u04b1\u0439\u0442\u049b\u044b-\u0442\u04b1\u0439\u0442\u049b\u044b
p150
(lp151
g3
asV\u0441\u0430\u043b\u0430-\u0441\u0430\u043b\u0430
p152
(lp153
g3
asV\u0436\u04d9\u0448\u0456\u043a-\u0436\u04d9\u0448\u0456\u043a
p154
(lp155
g3
asV\u049b\u0438\u043c\u044b\u043b-\u049b\u0438\u043c\u044b\u043b
p156
(lp157
g3
asV\u0441y\u0439\u0440\u0435\u04a3-\u0441y\u0439\u0440\u0435\u04a3
p158
(lp159
g3
asV\u0433\u04e9\u0439-\u0433\u04e9\u0439\u043b\u0435
p160
(lp161
g3
asV\u04d9\u0448-\u043fy\u0448
p162
(lp163
g3
asV\u04e9\u0439-\u0434\u04e9\u0439\u0442
p164
(lp165
g3
asV\u0442\u044b\u043f-\u0442\u0438\u043f\u044b\u043b
p166
(lp167
g3
asV\u04af\u043d\u0434\u0435\u043c\u0435\u0439-\u0442\u04af\u043d\u0434\u0435\u043c\u0435\u0439
p168
(lp169
g3
asV\u0442\u044b\u0440\u0430\u04a3-\u0442\u044b\u0440\u0430\u04a3
p170
(lp171
g3
asV\u0430\u0440\u043f\u044b\u043b-\u0442\u04b1\u0440\u043f\u044b\u043b
p172
(lp173
g3
asV\u049b\u044b\u043b\u049b\u044b\u04a3-\u049b\u044b\u043b\u049b\u044b\u04a3
p174
(lp175
g3
asV\u0436\u04e9\u043f-\u0436\u04e9\u043d\u0434\u0456
p176
(lp177
g3
asV\u043f\u04d9\u0442\u0435\u0440-\u043f\u04d9\u0442\u0435\u0440
p178
(lp179
g3
asV\u044b\u04a3-\u0436\u044b\u04a3
p180
(lp181
g3
asV\u0441y\u04a3\u0433\u0456\u043f-\u0441y\u04a3\u0433\u0456\u043f
p182
(lp183
g3
asV\u0434\u0430\u049b-\u0434\u0430\u04a3\u049b
p184
(lp185
g3
asV\u0441\u043e\u0493\u044b\u043f-\u0441\u043e\u0493\u044b\u043f
p186
(lp187
g3
asV\u043e\u04a3\u049b\u0430-\u0448\u043e\u04a3\u049b\u0430
p188
(lp189
g3
asV\u0431\u0430\u0436-\u0431\u0430\u0436
p190
(lp191
g3
asV\u049b\u0430\u0434\u0430\u04a3-\u049b\u0430\u0434\u0430\u04a3
p192
(lp193
g3
asV\u0434\u0430\u04a3\u0493\u044b\u0440-\u0434\u0430\u04a3\u0493\u044b\u0440
p194
(lp195
g3
asV\u0431\u0430\u0434\u0430\u043d\u0430\u0434\u0430\u0439-\u0431\u0430\u0434\u0430\u043d\u0430\u0434\u0430\u0439
p196
(lp197
g3
asV\u0430\u043f-\u0430\u043d\u044b\u049b
p198
(lp199
g3
asV\u0430\u0431\u0434\u044b\u0440\u0430\u043f-\u0434\u0430\u0431\u0434\u044b\u0440\u0430\u043f
p200
(lp201
g3
asV\u049b\u0430\u0442\u0430\u0440-\u049b\u0430\u0442\u0430\u0440
p202
(lp203
g3
asV\u0434\u0456\u04a3\u043a-\u0434\u0456\u04a3\u043a
p204
(lp205
g3
asV\u0438\u044b\u0440-\u0448\u0438\u044b\u0440
p206
(lp207
g3
asV\u0436\u0430\u043f-\u0436\u0430\u0440\u044b\u049b
p208
(lp209
g3
asV\u0430\u043f\u0430\u043b\u0430\u04a3-\u0442\u043e\u043f\u0430\u043b\u0430\u04a3
p210
(lp211
g3
asV\u0448\u0430\u0439-\u043f\u0430\u0439\u043b\u044b\u049b
p212
(lp213
g3
asV\u049b\u043e\u0434\u0430\u04a3-\u049b\u043e\u0434\u0430\u04a3
p214
(lp215
g3
asV\u0441y\u0439\u0456\u043f-\u0441y\u0439\u0456\u043f
p216
(lp217
g3
asV\u049b\u04b1\u043f-\u049b\u0443\u043d\u0430\u049b
p218
(lp219
g3
asV\u0434\u04d9\u043f-\u0434\u04d9\u0443
p220
(lp221
g3
asV\u0436\u0430\u043b\u043f-\u0436\u04b1\u043b\u043f
p222
(lp223
g3
asV\u049b\u0430\u0443-\u049b\u0430\u0443\u043b\u0430
p224
(lp225
g3
asV\u049b\u043e\u043b\u0430\u0442-\u0441\u043e\u043b\u0430\u0442
p226
(lp227
g3
asV\u0441\u043e\u043f-\u0441\u043e\u043f\u0430\u049b
p228
(lp229
g3
asV\u0434\u04d9\u043f-\u0434\u04d9\u043b
p230
(lp231
g3
asV\u049b\u0430\u043b\u0442\u0430\u0440\u044b\u0441-\u049b\u04b1\u043b\u0442\u0430\u0440\u044b\u0441
p232
(lp233
g3
asV\u043f\u044b\u0441\u049b\u044b\u0440\u044b\u043f-\u043f\u044b\u0441\u049b\u044b\u0440\u044b\u043f
p234
(lp235
g3
asV\u0431\u0430\u0440\u049b-\u0431\u0430\u0440\u049b
p236
(lp237
g3
asV\u0442\u044b\u0440\u0442\u044b\u049b-\u0442\u044b\u0440\u0442\u044b\u049b
p238
(lp239
g3
asV\u0448\u044b\u043f-\u0448\u044b\u0440\u0493\u0430\u0441\u044b\u0437
p240
(lp241
g3
asV\u044b\u04a3-\u0434\u044b\u04a3
p242
(lp243
g3
asV\u0435\u0441\u0435\u043b\u0435\u043f-\u0435\u0441\u0435\u043b\u0435\u043f
p244
(lp245
g3
asV\u04b1\u0440\u0441\u044b\u043f-\u04b1\u0440\u0441\u044b\u043f
p246
(lp247
g3
asV\u0436\u0435\u043b\u043f\u0456\u043f-\u0436\u0435\u043b\u043f\u0456\u043f
p248
(lp249
g3
asV\u049b\u0438\u049b\u0430\u04a3-\u049b\u0438\u049b\u0430\u04a3
p250
(lp251
g3
asV\u049b\u0438\u049b\u0430-\u0436\u0438\u049b\u0430
p252
(lp253
g3
asV\u0435\u0441\u0456\u043b\u0456\u043f-\u0435\u0441\u0456\u043b\u0456\u043f
p254
(lp255
g3
asV\u049b\u043e\u0440\u0442\u0438\u044b\u043f-\u049b\u043e\u0440\u0442\u0438\u044b\u043f
p256
(lp257
g3
asV\u04e9\u043a\u0456\u0440\u0456\u043f-\u04e9\u043a\u0456\u0440\u0456\u043f
p258
(lp259
g3
asV\u0431\u0430\u049b\u044b\u0440\u044b\u043f-\u0448\u0430\u049b\u044b\u0440\u044b\u043f
p260
(lp261
g3
asV\u044b\u043b\u0434\u044b\u0440\u043c\u0430\u049b-\u0448\u044b\u043b\u0434\u044b\u0440\u043c\u0430\u049b
p262
(lp263
g3
asV\u049b\u04b1\u0440-\u049b\u04b1\u0440
p264
(lp265
g3
asV\u043ay\u0439\u0434\u0456\u0440\u0435-\u043cy\u0439\u0434\u0456\u0440\u0435
p266
(lp267
g3
asV\u0438\u0456\u0441\u043a\u0435\u043f-\u0438\u0456\u0441\u043a\u0435\u043f
p268
(lp269
g3
asV\u0430\u0448\u044b\u049b\u0442\u0430\u043d-\u0430\u0448\u044b\u049b
p270
(lp271
g3
asV\u0442\u044b\u0440\u0441-\u0442\u044b\u0440\u0441
p272
(lp273
g3
asV\u0442\u0456\u043a\u0435\u0434\u0435\u043d-\u0442\u0456\u043a
p274
(lp275
g3
asV\u0438\u0435\u043a-\u0438\u0435\u0433\u0456\u043d\u0435
p276
(lp277
g3
asV\u043c\u04d9\u0443\u0435-\u0448\u04d9\u0443\u0435
p278
(lp279
g3
asV\u0430\u043f-\u0430\u0448\u044b\u049b
p280
(lp281
g3
asV\u0430\u043f-\u0430\u0440\u0437\u0430\u043d
p282
(lp283
g3
asV\u049b\u043e\u0442\u0430\u043d-\u049b\u043e\u0442\u0430\u043d
p284
(lp285
g3
asV\u0431\u0443\u043d\u0430\u049b-\u0431\u0443\u043d\u0430\u049b
p286
(lp287
g3
asV\u0431\u0430\u0441\u044b\u043f-\u0431\u0430\u0441\u044b\u043f
p288
(lp289
g3
asV\u0430\u0434\u044b\u0440-\u0430\u0434\u044b\u0440
p290
(lp291
g3
asV\u0431\u04b1\u0493\u0430\u0442-\u0431\u04b1\u0493\u0430\u0442
p292
(lp293
g3
asV\u04b1\u0437\u0430\u049b-\u04b1\u0437\u0430\u049b
p294
(lp295
g3
asV\u0438\u0456\u0440-\u0438\u0456\u0440
p296
(lp297
g3
asV\u0441\u044b\u043f-\u0441\u044b\u043f\u0430\u0439\u044b
p298
(lp299
g3
asV\u0448\u04b1\u04a3\u0493\u044b\u0440-\u0448\u04b1\u04a3\u0493\u044b\u0440
p300
(lp301
g3
asV\u04e9\u0437-\u04e9\u0437\u0456\u043d\u0435\u043d
p302
(lp303
g3
asV\u0431\u0456\u0440\u0434\u0456-\u0431\u0456\u0440\u0433\u0435
p304
(lp305
g3
asV\u0436\u0430\u043f-\u0436\u0430\u049b\u044b\u043d
p306
(lp307
g3
asV\u049b\u04b1\u043c-\u049b\u04b1\u043c
p308
(lp309
g3
asV\u0435\u0433\u0456\u043d-\u0442\u0435\u0433\u0456\u043d
p310
(lp311
g3
asV\u0431\u0430\u043b\u0448\u044b\u049b-\u0431\u0430\u043b\u0448\u044b\u049b
p312
(lp313
g3
asV\u049b\u04b1\u0440\u0443-\u049b\u04b1\u0440\u0443
p314
(lp315
g3
asV\u04d9\u0441\u0442\u0435-\u04d9\u0441\u0442\u0435
p316
(lp317
g3
asV\u043c\u0456\u043d\u0456\u043f-\u043c\u0456\u043d\u0456\u043f
p318
(lp319
g3
asV\u0430\u043b\u0430\u0443-\u0434\u0430\u043b\u0430\u0443
p320
(lp321
g3
asV\u049b\u0430\u043b\u0442\u0430-\u049b\u04b1\u043b\u0442\u0430
p322
(lp323
g3
asV\u049b\u0438\u0442-\u049b\u0438\u0442\u0442\u0430
p324
(lp325
g3
asV\u043a\u0456\u0440\u0448-\u043a\u0456\u0440\u0448
p326
(lp327
g3
asV\u0436\u04b1\u043b\u049b\u044b\u043f-\u0436\u04b1\u043b\u049b\u044b\u043f
p328
(lp329
g3
asV\u0448\u0456\u043f-\u0448\u0438\u043a\u0456
p330
(lp331
g3
asV\u0435\u043c\u0456\u0441-\u0435\u043c\u0456\u0441
p332
(lp333
g3
asV\u0441\u0435\u0440\u043f\u0456\u043f-\u0441\u0435\u0440\u043f\u0456\u043f
p334
(lp335
g3
asV\u0436\u044b\u043b\u043f\u044b\u04a3-\u0436\u044b\u043b\u043f\u044b\u04a3
p336
(lp337
g3
asV\u0430\u0437-\u0430\u0437\u0434\u0430\u043d
p338
(lp339
g3
asV\u0430\u0437-\u0430\u0437\u0434\u0430\u043f
p340
(lp341
g3
asV\u0442\u044b\u043f-\u0442\u044b\u04a3
p342
(lp343
g3
asV\u049b\u043e\u0440\u0441-\u049b\u043e\u0440\u0441
p344
(lp345
g3
asV\u0430\u0440\u0441-\u0430\u0440\u0441
p346
(lp347
g3
asV\u0448\u043e\u043b\u043f-\u0448\u043e\u043b\u043f
p348
(lp349
g3
asV\u043a\u0435\u043f-\u043a\u0435\u043b\u0442\u0435
p350
(lp351
g3
asV\u049b\u0430\u0439\u0442\u0430-\u049b\u0430\u0439\u0442\u0430
p352
(lp353
g3
asV\u0430\u0439\u0493\u044b\u0437-\u04b1\u0439\u0493\u044b\u0437
p354
(lp355
g3
asV\u049b\u044b\u0434\u044b\u04a3-\u049b\u044b\u0434\u044b\u04a3
p356
(lp357
g3
asV\u0445\u0430\u0442-\u043c\u0430\u0442
p358
(lp359
g3
asV\u0442\u043e\u043f-\u0442\u043e\u0431\u044b\u043c\u0435\u043d
p360
(lp361
g3
asV\u0431\u04b1\u0436\u044b\u0440-\u0431\u04b1\u0436\u044b\u0440
p362
(lp363
g3
asV\u049b\u043e\u0439\u044b\u043f-\u049b\u043e\u0439\u044b\u043f
p364
(lp365
g3
asV\u0431\u0435\u0442-\u0431\u0435\u0442\u0456\u043d\u0435
p366
(lp367
g3
asV\u0441\u0430\u0431\u0430-\u0441\u0430\u0431\u0430
p368
(lp369
g3
asV\u0437\u0435\u04a3-\u0437\u0435\u04a3
p370
(lp371
g3
asV\u0434\u044b\u04a3\u049b-\u0434\u044b\u04a3\u049b
p372
(lp373
g3
asV\u0442\u044b\u043f-\u0442\u044b\u043f
p374
(lp375
g3
asV\u0441\u0443\u0430\u0440\u0430-\u0441\u0443\u0430\u0440\u0430
p376
(lp377
g3
asV\u043c\u0438\u049b\u044b-\u0436\u0438\u049b\u044b
p378
(lp379
g3
asV\u0434\u0430\u043b\u0430\u04a3-\u0434\u04b1\u043b\u0430\u04a3
p380
(lp381
g3
asV\u0434\u0430\u043b\u0430\u04a3-\u0434\u0430\u043b\u0430\u04a3
p382
(lp383
g3
asV\u0437\u044b\u043c-\u0437\u0438\u044f
p384
(lp385
g3
asV\u0442\u0430\u043c\u044b\u043f-\u0442\u0430\u043c\u044b\u043f
p386
(lp387
g3
asV\u0493\u044b\u0448-\u0493\u044b\u0448
p388
(lp389
g3
asV\u0430\u0445\u0430-\u0445\u0430
p390
(lp391
g3
asV\u0431\u04e9\u043b\u0442\u0435\u043a-\u0441\u04e9\u043b\u0442\u0435\u043a
p392
(lp393
g3
asV\u043e\u0434\u044b\u0440\u0430\u044f-\u043e\u0434\u044b\u0440\u0430\u044f
p394
(lp395
g3
asV\u043c\u0430\u044f-\u043c\u0430\u044f
p396
(lp397
g3
asV\u0435\u0440\u0435\u0436\u0435-\u043f\u0435\u0440\u0435\u0436\u0435
p398
(lp399
g3
asV\u0436\u0430\u043b\u0442\u0430\u04a3-\u0436\u0430\u043b\u0442\u0430\u04a3
p400
(lp401
g3
asV\u043e\u0440\u043d\u044b-\u043e\u0440\u043d\u044b\u043d\u0430
p402
(lp403
g3
asV\u043ay\u043b\u0456\u043c-\u043ay\u043b\u0456\u043c
p404
(lp405
g3
asV\u044b\u049b\u0442\u0430\u0439-\u044b\u049b\u0442\u0430\u0439
p406
(lp407
g3
asV\u0441\u04b1\u04a3\u049b-\u0441\u04b1\u04a3\u049b
p408
(lp409
g3
asV\u049b\u0430\u0440\u0430-\u049b\u04b1\u0440\u0430
p410
(lp411
g3
asV\u049b\u044b\u043c\u044b\u04a3-\u049b\u044b\u043c\u044b\u04a3
p412
(lp413
g3
asV\u043d\u0435\u043a-\u043d\u04b1\u049b
p414
(lp415
g3
asV\u0434\u0435\u043c\u0434\u0435-\u0434\u0435\u043c\u0434\u0435
p416
(lp417
g3
asV\u043a\u04e9\u0434\u0438-\u0441\u04e9\u0434\u0438
p418
(lp419
g3
asV\u0431\u04b1\u0436-\u0431\u04b1\u0436
p420
(lp421
g3
asV\u0441\u043e\u0439\u0434\u0430\u049b-\u0441\u043e\u0439\u0434\u0430\u049b
p422
(lp423
g3
asV\u0448\u044b\u0440-\u0448\u044b\u0440\u043b\u0430
p424
(lp425
g3
asV\u044b\u0440\u044b\u049b-\u0436\u044b\u0440\u044b\u049b
p426
(lp427
g3
asV\u043c\u0456\u04a3\u0433\u0456\u0440-\u043c\u0456\u04a3\u0433\u0456\u0440
p428
(lp429
g3
asV\u043a\u04e9\u043f\u0442\u0435\u043d-\u043a\u04e9\u043f
p430
(lp431
g3
asV\u0431\u044b\u043b\u0448\u044b\u049b-\u0431\u044b\u043b\u0448\u044b\u049b
p432
(lp433
g3
asV\u0431\u04b1\u043b\u0442-\u0431\u04b1\u043b\u0442
p434
(lp435
g3
asV\u0436y\u0437\u0431\u0435-\u0436y\u0437
p436
(lp437
g3
asV\u0441\u043e\u0437\u044b\u043f-\u0441\u043e\u0437\u044b\u043f
p438
(lp439
g3
asV\u0448\u043e\u0440\u049b\u044b\u043d-\u0448\u043e\u0440\u049b\u044b\u043d
p440
(lp441
g3
asV\u043ay\u0439\u0431\u0435\u04a3-\u0441y\u0439\u0431\u0435\u04a3
p442
(lp443
g3
asV\u0430\u04a3-\u0437\u0430\u04a3
p444
(lp445
g3
asV\u04d9\u0440\u0435-\u0441\u04d9\u0440\u0435
p446
(lp447
g3
asV\u0431\u0430\u049b-\u0431\u0430\u049b
p448
(lp449
g3
asV\u0441\u0456\u043b\u043a\u0456\u043f-\u0441\u0456\u043b\u043a\u0456\u043f
p450
(lp451
g3
asV\u0431\u0430\u0439\u049b\u0430\u043f-\u0431\u0430\u0439\u049b\u0430\u043f
p452
(lp453
g3
asV\u0435\u043a\u0436\u0435\u0439-\u0442\u0435\u0433\u0436\u0435\u0439
p454
(lp455
g3
asV\u0434\u0435\u043b\u0434\u0435\u04a3-\u0434\u0435\u043b\u0434\u0435\u04a3
p456
(lp457
g3
asV\u044b\u0440\u0436\u0430\u049b-\u044b\u0440\u0436\u0430\u049b
p458
(lp459
g3
asV\u0436\u043e\u043b\u0430\u049b-\u0436\u043e\u043b\u0430\u049b
p460
(lp461
g3
asV\u0436\u0430\u043b\u0442\u0430\u049b-\u0436\u04b1\u043b\u0442\u0430\u049b
p462
(lp463
g3
asV\u0431y\u043a\u0442\u0435\u043f-\u0431y\u043a\u0442\u0435\u043f
p464
(lp465
g3
asV\u0430\u043f-\u0430\u0443\u044b\u0440
p466
(lp467
g3
asV\u0430\u043f\u0430\u0448-\u049b\u04b1\u043f\u0430\u0448
p468
(lp469
g3
asV\u04b1\u0440\u044b\u043f-\u04b1\u0440\u044b\u043f
p470
(lp471
g3
asV\u043a\u0435\u043f-\u043a\u0435\u0441\u0435\u043a
p472
(lp473
g3
asV\u0434\u044b\u0437-\u0434\u044b\u0437
p474
(lp475
g3
asV\u049b\u0430\u043f\u0430-\u049b\u0430\u043b\u044b\u04a3
p476
(lp477
g3
asV\u0434\u043e\u043c\u0430\u043b\u0430\u0442\u044b\u043f-\u0434\u043e\u043c\u0430\u043b\u0430\u0442\u044b\u043f
p478
(lp479
g3
asV\u043a\u0456\u0441\u0456-\u043c\u0456\u0441\u0456
p480
(lp481
g3
asV\u043d\u04b1\u0441\u049b\u0430-\u043d\u04b1\u0441\u049b\u0430
p482
(lp483
g3
asV\u0430\u0439\u049b\u0430\u0439-\u04b1\u0439\u049b\u0430\u0439
p484
(lp485
g3
ag3
asV\u0436\u044b\u043f-\u0436\u044b\u043b\u044b\u043c\u0448\u044b
p486
(lp487
g3
asV\u04d9\u043b\u0435\u043a-\u0448\u04d9\u043b\u0435\u043a
p488
(lp489
g3
asV\u0448\u0430\u0440\u043b\u0430\u0439-\u0448\u0430\u0440\u043b\u0430\u0439
p490
(lp491
g3
asV\u049b\u043e\u043f\u0430\u049b-\u049b\u043e\u043f\u0430\u049b
p492
(lp493
g3
asV\u0441y\u0440\u0442\u0435-\u043cy\u0440\u0442\u0435
p494
(lp495
g3
asV\u049b\u0438\u043f\u0430\u049b-\u0441\u0438\u043f\u0430\u049b
p496
(lp497
g3
asV\u0431\u0456\u0440\u0435\u0443\u0433\u0435-\u0431\u0456\u0440\u0435\u0443
p498
(lp499
g3
asV\u0441\u044b\u043f-\u0441\u0438\u0434\u0430\u043c
p500
(lp501
g3
asV\u0431\u0430\u0440\u043c\u0430\u049b\u0442\u0430\u0439-\u0431\u0430\u0440\u043c\u0430\u049b\u0442\u0430\u0439
p502
(lp503
g3
asV\u0436\u04b1\u043b\u0430-\u043c\u04b1\u043b\u0430
p504
(lp505
g3
asV\u0434\u0430\u043b\u0434\u0430-\u0434\u04b1\u043b\u0434\u0430
p506
(lp507
g3
asV\u04e9\u043f-\u04e9\u04a3\u0434\u0456
p508
(lp509
g3
asV\u0448\u0435\u043f-\u0448\u0435\u043f
p510
(lp511
g3
asV\u044b\u0437\u0493\u044b\u0442\u044b\u043f-\u044b\u0437\u0493\u044b\u0442\u044b\u043f
p512
(lp513
g3
asV\u049b\u0430\u0448\u044b\u0440-\u049b\u04b1\u0448\u044b\u0440
p514
(lp515
g3
asV\u043c\u0430\u043b\u044b\u043f-\u043c\u0430\u043b\u044b\u043f
p516
(lp517
g3
asV\u043b\u043e\u049b-\u043b\u049b
p518
(lp519
g3
asV\u049b\u0430\u043d-\u049b\u0430\u043d
p520
(lp521
g3
asV\u0434\u0430\u043f-\u0434\u0430\u0440\u0434\u0430\u0439
p522
(lp523
g3
asV\u04d9\u043b\u0435\u043d-\u043f\u04d9\u043b\u0435\u043d
p524
(lp525
g3
asV\u044b\u0440\u0436\u0430\u043b\u0430\u04a3-\u044b\u0440\u0436\u0430\u043b\u0430\u04a3
p526
(lp527
g3
asV\u0442\u04d9\u043a-\u0442\u04d9\u043a\u0442\u04d9
p528
(lp529
g3
asV\u0448\u0430\u043d\u0434\u044b\u0440-\u0448\u0430\u043d\u0434\u044b\u0440
p530
(lp531
g3
asV\u04e9\u0441\u0442\u0435-\u04e9\u0441\u0442\u0435
p532
(lp533
g3
asV\u0430\u043b\u0448\u0430-\u0430\u043b\u0448\u0430\u049b
p534
(lp535
g3
asV\u0436\u0430\u0440\u0431\u0430\u04a3-\u0436\u0430\u0440\u0431\u0430\u04a3
p536
(lp537
g3
asV\u0441\u0430\u0442\u043f\u0430\u049b-\u0441\u0430\u0442\u043f\u0430\u049b
p538
(lp539
g3
asV\u044b\u043c\u0434\u0430\u0441-\u0436\u044b\u043c\u0434\u0430\u0441
p540
(lp541
g3
asV\u0431\u0456\u0440\u0434\u0435-\u0431\u0456\u0440
p542
(lp543
g3
asV\u0441\u0435\u0431\u0435\u043f\u0441\u0456\u0437\u0434\u0435\u043d-\u0441\u0435\u0431\u0435\u043f\u0441\u0456\u0437
p544
(lp545
g3
asV\u043e\u0439\u0442\u0430\u04a3-\u043e\u0439\u0442\u0430\u04a3
p546
(lp547
g3
asV\u0435\u0433\u0456\u0437-\u0435\u0433\u0456\u0437\u0435\u043a\u0442\u0456
p548
(lp549
g3
asV\u0436\u0435\u0440-\u0436\u0435\u0440\u0433\u0435
p550
(lp551
g3
asV\u0430\u0439\u0440\u0430-\u0436\u0430\u0439\u0440\u0430
p552
(lp553
g3
asV\u0430\u043b\u0430\u043f\u0430\u0439-\u0442\u0430\u043b\u0430\u043f\u0430\u0439
p554
(lp555
g3
asV\u0442\u0456\u043a-\u0442\u0456\u043a
p556
(lp557
g3
asV\u043ay\u0440\u043f-\u043ay\u0440\u043f
p558
(lp559
g3
asV\u0441\u044b\u043b\u043f-\u0441\u044b\u043b\u043f
p560
(lp561
g3
asV\u0441\u0438\u0434\u0430\u043c-\u0441\u0438\u0434\u0430\u043c
p562
(lp563
g3
asV\u0442\u0456\u0441\u0442\u0435\u043f-\u0442\u0456\u0441\u0442\u0435\u043f
p564
(lp565
g3
asV\u0434\u0430\u049b\u043f\u0430-\u0434\u0430\u049b
p566
(lp567
g3
asV\u043c\u04e9\u043b\u0442-\u043c\u04e9\u043b\u0442
p568
(lp569
g3
asV\u0431\u043e\u0440\u0442-\u0431\u043e\u0440\u0442
p570
(lp571
g3
asV\u0430\u0439\u0440\u0430\u043f-\u0436\u0430\u0439\u0440\u0430\u043f
p572
(lp573
g3
asV\u0430\u043b\u044b\u0441\u0442\u0430\u0439-\u0430\u043b\u044b\u0441\u0442\u0430\u0439
p574
(lp575
g3
asV\u04e9\u0437\u0456\u043c\u0434\u0456-\u04e9\u0437\u0456\u043c
p576
(lp577
g3
asV\u0442\u043e\u0441\u0442\u0430\u0493\u0430\u043d\u0434\u0430\u0439-\u0442\u043e\u0441\u0442\u0430\u0493\u0430\u043d\u0434\u0430\u0439
p578
(lp579
g3
asV\u044b\u043d\u0442\u044b-\u0436\u044b\u043d\u0442\u044b
p580
(lp581
g3
asV\u0431\u043e\u0442-\u0441\u043e\u0442
p582
(lp583
g3
asV\u049b\u0438\u049b\u0430-\u0441\u0438\u049b\u0430
p584
(lp585
g3
asV\u043a\u0438\u0435-\u043a\u0438\u0435
p586
(lp587
g3
asV\u049b\u0438\u0442-\u049b\u0438\u0442
p588
(lp589
g3
asV\u0436\u0430\u043f\u0430\u049b-\u0436\u0430\u043f\u0430\u049b
p590
(lp591
g3
asV\u0442\u0430\u043c-\u0442\u04b1\u043c
p592
(lp593
g3
asV\u0436\u0430\u04a3\u0493\u0430\u049b\u0442\u0430\u0439-\u0436\u0430\u04a3\u0493\u0430\u049b\u0442\u0430\u0439
p594
(lp595
g3
asV\u0431\u0430\u0440\u043f-\u0431\u0430\u0440\u043f
p596
(lp597
g3
asV\u0441\u0456\u043b\u0435\u043c-\u0441\u0456\u043b\u0435\u043c
p598
(lp599
g3
asV\u04b1\u0440\u044b-\u043c\u04b1\u0440\u044b
p600
(lp601
g3
asV\u0435\u0440\u0435-\u043c\u0435\u0440\u0435
p602
(lp603
g3
asV\u0442\u043e\u043f-\u0442\u043e\u043f
p604
(lp605
g3
asV\u0448\u0430\u04a3\u0493\u044b\u0440-\u0448\u04b1\u04a3\u0493\u044b\u0440
p606
(lp607
g3
asV\u043c\u0435\u0437\u0433\u0456\u043b-\u043c\u0435\u0437\u0433\u0456\u043b
p608
(lp609
g3
asV\u043f\u0430\u0440-\u043f\u0430\u0440
p610
(lp611
g3
asV\u049b\u04b1\u0440\u0430\u0443-\u049b\u04b1\u0440\u0430\u0443
p612
(lp613
g3
asV\u0441\u04e9\u0439\u0442\u0456\u043f-\u0441\u04e9\u0439\u0442\u0456\u043f
p614
(lp615
g3
asV\u0430\u043f\u044b\u0440\u0430\u049b-\u0442\u0430\u043f\u044b\u0440\u0430\u049b
p616
(lp617
g3
asV\u0431\u0456\u0440\u0442\u0456\u043d-\u0431\u0456\u0440\u0442\u0456\u043d
p618
(lp619
g3
asV\u0441\u044b\u043b\u049b-\u0441\u044b\u043b\u049b
p620
(lp621
g3
asVy\u04a3\u0456\u0440\u0435\u0439\u0433\u0435\u043d-y\u04a3\u0456\u0440\u0435\u0439\u0433\u0435\u043d
p622
(lp623
g3
asV\u0430\u0437-\u043c\u0430\u0437
p624
(lp625
g3
asV\u0436\u044b\u043f\u044b\u0440-\u0436\u044b\u043f\u044b\u0440
p626
(lp627
g3
asV\u0431\u0456\u043f-\u0431\u0456\u0440\u0434\u0435\u0439
p628
(lp629
g3
asV\u0431\u044b\u0434\u044b-\u0431\u044b\u0434\u044b
p630
(lp631
g3
asV\u044b\u043f-\u0440\u0430\u0441
p632
(lp633
g3
asV\u0430\u043f\u044b\u0440-\u0436\u0430\u043f\u044b\u0440
p634
(lp635
g3
asV\u0430\u0443\u044b\u0437\u0434\u0430\u043d-\u0430\u0443\u044b\u0437\u0493\u0430
p636
(lp637
g3
asV\u04e9\u043d\u0434\u0456\u0440\u0434\u0435\u0439-\u04e9\u043d\u0434\u0456\u0440\u0434\u0435\u0439
p638
(lp639
g3
asV\u044b\u049b\u043f\u044b\u043b-\u0436\u044b\u049b\u043f\u044b\u043b
p640
(lp641
g3
asV\u044b\u0440\u0434\u0443-\u0434\u044b\u0440\u0434\u0443
p642
(lp643
g3
asV\u049b\u0430\u0437-\u049b\u0430\u0437
p644
(lp645
g3
asV\u0447\u043e\u049b\u044b\u043c-\u0447\u043e\u049b\u044b\u043c
p646
(lp647
g3
asV\u049b\u04b1\u043f-\u049b\u04b1\u043f
p648
(lp649
g3
asV\u0441\u0430\u043b\u0434\u044b\u0440-\u0441\u04b1\u043b\u0434\u044b\u0440
p650
(lp651
g3
asV\u0435\u04a3\u0456\u0440\u0435\u0439-\u0435\u04a3\u0456\u0440\u0435\u0439
p652
(lp653
g3
asV\u049b\u043e\u043b\u043c\u0430-\u049b\u043e\u043b
p654
(lp655
g3
asV\u0436\u0435\u043b\u0434\u0456\u0440\u0442\u0456\u043f-\u0436\u0435\u043b\u0434\u0456\u0440\u0442\u0456\u043f
p656
(lp657
g3
asV\u0430\u0440\u044b\u0437-\u043c\u0430\u0440\u044b\u0437
p658
(lp659
g3
asV\u043e\u049b\u044b\u0440\u0430\u043d\u044b\u043f-\u043e\u049b\u044b\u0440\u0430\u043d\u044b\u043f
p660
(lp661
g3
asV\u043e\u0440\u0448\u044b\u043f-\u0448\u043e\u0440\u0448\u044b\u043f
p662
(lp663
g3
asV\u0434\u0430\u043f-\u0434\u0430\u0439\u044b\u043d
p664
(lp665
g3
asV\u0431\u043e\u049b\u0442\u0430\u043f-\u0431\u043e\u049b\u0442\u0430\u043f
p666
(lp667
g3
asV\u0431\u0430\u043b\u0442\u0430\u0439-\u0448\u0430\u043b\u0442\u0430\u0439
p668
(lp669
g3
asV\u0430\u0440\u044b\u049b-\u0430\u0440\u044b\u049b
p670
(lp671
g3
asV\u0441\u0430\u043b\u043c\u0430\u049b\u0442\u0430\u043f-\u0441\u0430\u043b\u043c\u0430\u049b\u0442\u0430\u043f
p672
(lp673
g3
asV\u0435\u043b\u0435\u04a3-\u0435\u043b\u0435\u04a3
p674
(lp675
g3
asV\u0442\u043e\u043b\u049b\u044b\u0442\u044b\u043f-\u0442\u043e\u043b\u049b\u044b\u0442\u044b\u043f
p676
(lp677
g3
asV\u044b\u0440\u0493\u0430\u043b\u0442\u044b\u043f-\u0436\u044b\u0440\u0493\u0430\u043b\u0442\u044b\u043f
p678
(lp679
g3
asV\u049b\u043e\u049b\u0430\u04a3-\u0441\u043e\u049b\u0430\u04a3
p680
(lp681
g3
asV\u0435\u043b\u0431\u0435-\u0441\u0435\u043b\u0431\u0435
p682
(lp683
g3
asV\u0441\u0430\u043b\u0434\u044b\u0440-\u0441\u0430\u043b\u0434\u044b\u0440
p684
(lp685
g3
asV\u049b\u0430\u0442\u049b\u0430\u043d-\u049b\u04b1\u0442\u049b\u0430\u043d
p686
(lp687
g3
asV\u0436\u0430\u043b\u0442-\u0436\u0430\u043b\u0442
p688
(lp689
g3
asV\u0430\u043f\u044b\u0440\u0430-\u0436\u0430\u043f\u044b\u0440\u0430
p690
(lp691
g3
asV\u049b\u044b\u0437\u044b\u049b-\u049b\u044b\u0437\u044b\u049b
p692
(lp693
g3
asV\u043a\u0435\u043b\u0435-\u043a\u0435\u043b\u0435
p694
(lp695
g3
asV\u0430\u0440\u0431\u0430\u04a3-\u0441\u0430\u0440\u0431\u0430\u04a3\u049b
p696
(lp697
g3
asV\u0436y\u0433\u0435\u0440\u0456\u0434\u0435\u0439-\u0436y\u0433\u0435\u0440\u0456\u0434\u0435\u0439
p698
(lp699
g3
asV\u0442\u0435\u04a3\u043a\u0438\u0456\u043f-\u0442\u0435\u04a3\u043a\u0438\u0456\u043f
p700
(lp701
g3
asV\u049b\u0430\u0442\u043f\u0430\u0440-\u049b\u0430\u0442\u043f\u0430\u0440
p702
(lp703
g3
asV\u04d9\u043b\u0442\u0435\u043a-\u0442\u04d9\u043b\u0442\u0435\u043a
p704
(lp705
g3
asV\u0441\u0435\u043a\u0441\u0438\u0456\u043f-\u0441\u0435\u043a\u0441\u0438\u0456\u043f
p706
(lp707
g3
asV\u0430\u0437-\u043c\u04b1\u0437
p708
(lp709
g3
asV\u0448\u044b\u043c-\u0448\u044b\u043c
p710
(lp711
g3
asVy\u0437\u0434\u0456\u043a-y\u0437\u0434\u0456\u043a
p712
(lp713
g3
asV\u0431\u0430\u049b\u044b\u0440\u044b\u043f-\u0431\u0430\u049b\u044b\u0440\u044b\u043f
p714
(lp715
g3
asV\u049b\u0430\u04a3-\u049b\u0430\u04a3\u049b
p716
(lp717
g3
asV\u049b\u043e\u0434\u044b\u0440\u0430\u04a3-\u049b\u043e\u0434\u044b\u0440\u0430\u04a3
p718
(lp719
g3
asV\u04d9\u043b\u0435\u043c-\u0436\u04d9\u043b\u0435\u043c
p720
(lp721
g3
asV\u043e\u0440\u0493\u044b\u043b-\u043e\u0440\u0493\u044b\u043b
p722
(lp723
g3
asV\u043ay\u043b\u0435-\u043ay\u043b\u0435
p724
(lp725
g3
asV\u04b1\u0431\u0430\u049b-\u0448\u04b1\u0431\u0430\u049b
p726
(lp727
g3
asV\u043b\u0430\u049b-\u043b\u0430\u049b
p728
(lp729
g3
asV\u04b1\u043f-\u04b1\u044f\u04a3
p730
(lp731
g3
asV\u0442\u0435\u043a\u0442\u0435\u043d-\u0442\u0435\u043a
p732
(lp733
g3
asV\u04d9\u0436\u0456-\u043ay\u0436\u0456
p734
(lp735
g3
asV\u0431\u0456\u0440\u043c\u0435-\u0431\u0456\u0440
p736
(lp737
g3
asV\u049b\u044b\u0440\u044b\u0441-\u0442\u044b\u0440\u044b\u0441
p738
(lp739
g3
asV\u0430\u0443\u043d\u0430\u043f-\u0430\u0443\u043d\u0430\u043f
p740
(lp741
g3
asV\u043b\u0435\u043a-\u043b\u0435\u0433\u0456\u043c\u0435\u043d
p742
(lp743
g3
asV\u049b\u0430\u0437\u0434\u0430\u04a3-\u049b\u0430\u0437\u0434\u0430\u04a3
p744
(lp745
g3
asV\u0431\u0430\u0442\u044b\u0440\u0430-\u0431\u0430\u0442\u044b\u0440\u0430
p746
(lp747
g3
asV\u0442\u04b1\u043f-\u0442\u04b1\u043d\u044b\u049b
p748
(lp749
g3
asV\u0431\u0435\u0442-\u0431\u0435\u0442\u0456\u043c\u0435\u043d
p750
(lp751
g3
asV\u0430\u0441\u0430\u0439-\u043cy\u0441\u0435\u0439
p752
(lp753
g3
asV\u049b\u043e\u0439\u0434\u0430\u0439-\u049b\u043e\u0439\u0434\u0430\u0439
p754
(lp755
g3
asV\u0442\u04d9\u0442\u0442\u0456-\u0442\u04d9\u0442\u0442\u0456
p756
(lp757
g3
asV\u0442\u0430\u0440\u043f\u0430\u04a3-\u0442\u0430\u0440\u043f\u0430\u04a3
p758
(lp759
g3
asV\u043a\u0435\u043b\u0442\u0435-\u043a\u0435\u043b\u0442\u0435
p760
(lp761
g3
asV\u043e\u0440\u044b\u043d\u0434\u044b-\u043e\u0440\u044b\u043d\u0441\u044b\u0437
p762
(lp763
g3
asV\u049b\u044b\u0440\u0442\u044b\u0441-\u049b\u044b\u0440\u0442\u044b\u0441
p764
(lp765
g3
asV\u043c\u0430\u04a3\u049b-\u043c\u0430\u04a3\u049b
p766
(lp767
g3
asV\u0431\u04d9\u043b\u0435-\u0436\u0430\u043b\u0430
p768
(lp769
g3
asV\u0430\u0443\u0434\u044b\u043c-\u0430\u0443\u0434\u044b\u043c
p770
(lp771
g3
asV\u0448\u0438\u049b-\u0448\u0438\u049b
p772
(lp773
g3
asV\u0431\u044b\u043b\u0434\u044b\u0440-\u0431\u044b\u043b\u0434\u044b\u0440
p774
(lp775
g3
asV\u0431\u04e9\u043b\u0456\u043d\u0456\u043f-\u0431\u04e9\u043b\u0456\u043d\u0456\u043f
p776
(lp777
g3
asV\u0436y\u0440\u0435-\u0436y\u0440\u0435
p778
(lp779
g3
asV\u0430\u0440\u0441-\u04b1\u0440\u0441
p780
(lp781
g3
asV\u0435\u04a3\u0456\u0440\u0435\u043f-\u0435\u04a3\u0456\u0440\u0435\u043f
p782
(lp783
g3
asV\u04d9\u043f\u0456-\u0442\u04d9\u043f\u0456
p784
(lp785
g3
asV\u0430\u0440\u049b\u044b\u043d-\u0436\u0430\u0440\u049b\u044b\u043d
p786
(lp787
g3
asV\u049b\u043e\u0440\u0431\u0430\u04a3-\u049b\u043e\u0440\u0431\u0430\u04a3
p788
(lp789
g3
asV\u0431\u043e\u043b\u043f-\u0431\u043e\u043b\u043f
p790
(lp791
g3
asV\u0442y\u0439\u0434\u0435\u043a-\u0442y\u0439\u0434\u0435\u043a
p792
(lp793
g3
asV\u0431\u044b\u0442\u044b\u0440-\u0431\u044b\u0442\u044b\u0440
p794
(lp795
g3
asV\u043a\u0435\u043c-\u043a\u0435\u043c\u0434\u0435\u043f
p796
(lp797
g3
asV\u0443\u0434\u0430\u0440-\u0434\u0443\u0434\u0430\u0440
p798
(lp799
g3
asV\u04d9\u0436\u0456\u043a-\u043ay\u0436\u0456\u043a
p800
(lp801
g3
asV\u049b\u0430\u0440\u0430\u043f\u0442\u0430\u043d-\u049b\u0430\u0440\u0430\u043f
p802
(lp803
g3
asV\u049b\u0430\u043f-\u049b\u0430\u0440\u0430
p804
(lp805
g3
asV\u043a\u0435\u0440\u0435-\u043a\u0435\u0440\u0435
p806
(lp807
g3
asV\u0441\u0435\u0440\u0435\u0439\u0442\u0456\u043f-\u0441\u0435\u0440\u0435\u0439\u0442\u0456\u043f
p808
(lp809
g3
asV\u0430\u0443\u044b\u043b-\u0430\u0443\u044b\u043b
p810
(lp811
g3
asV\u043a\u04e9\u0441-\u043a\u04e9\u0441\u0442\u0435
p812
(lp813
g3
asV\u043a\u0435\u0437-\u043a\u0435\u0437\u0456\u043c\u0435\u043d
p814
(lp815
g3
asV\u0431\u0435\u043a\u0435\u0440\u0434\u0435\u043d-\u0431\u0435\u043a\u0435\u0440
p816
(lp817
g3
asV\u04d9\u043f-\u04d9\u0437\u0456\u0440
p818
(lp819
g3
asV\u0430\u043b\u0430-\u0430\u043b\u0430\u049b
p820
(lp821
g3
asV\u049b\u043e\u0436\u044b\u0440-\u049b\u043e\u0436\u044b\u0440
p822
(lp823
g3
asV\u049b\u043e\u049b\u044b\u0440-\u043c\u043e\u049b\u044b\u0440
p824
(lp825
g3
asV\u0431\u04e9\u043b\u0456\u043d\u0435-\u0431\u04e9\u043b\u0456\u043d\u0435
p826
(lp827
g3
asV\u04b1\u0448\u044b\u043f-\u04b1\u0448\u044b\u043f
p828
(lp829
g3
asV\u0441\u0430\u0443-\u0441\u0430\u0443
p830
(lp831
g3
asV\u043e\u049b\u0443-\u0442\u043e\u049b\u0443
p832
(lp833
g3
asV\u0442\u04b1\u043f-\u0442\u04b1\u0493\u044b\u043b
p834
(lp835
g3
asVy\u0440\u043a\u0435\u0440\u0434\u0435\u0439-y\u0440\u043a\u0435\u0440\u0434\u0435\u0439
p836
(lp837
g3
asV\u0436\u04b1\u043f-\u0436\u04b1\u0431\u044b\u043c\u0435\u043d
p838
(lp839
g3
asV\u0442\u044b\u043c-\u0442\u044b\u043c
p840
(lp841
g3
asV\u0431\u0435\u043b\u0434\u0435\u0443-\u0431\u0435\u043b\u0434\u0435\u0443
p842
(lp843
g3
asV\u0436\u0435\u0442\u0456-\u0436\u0435\u0442\u0456\u0434\u0435\u043d
p844
(lp845
g3
asV\u049b\u04b1\u0448\u0430\u049b-\u049b\u04b1\u0448\u0430\u049b
p846
(lp847
g3
asV\u0436\u0430\u0439-\u0436\u0430\u0439\u044b\u043d\u0430
p848
(lp849
g3
asV\u0431\u0435\u043a\u0435\u0440\u0434\u0435\u043d-\u0431\u0435\u043a\u0435\u0440\u0433\u0435
p850
(lp851
g3
asV\u0434\u0456\u0440-\u0434\u0456\u0440
p852
(lp853
g3
asV\u04b1\u049b\u0430\u043d-\u0441\u04b1\u049b\u0430\u043d
p854
(lp855
g3
asV\u0441\u044b\u0431\u044b\u0440-\u0441\u044b\u0431\u044b\u0440
p856
(lp857
g3
asV\u049b\u044b\u043f-\u049b\u044b\u0437\u044b\u043b
p858
(lp859
g3
asV\u0434\u04e9\u04a3\u043a\u0438\u0456\u043f-\u0434\u04e9\u04a3\u043a\u0438\u0456\u043f
p860
(lp861
g3
asV\u0456\u0437\u0431\u0435-\u0456\u0437
p862
(lp863
g3
asV\u049b\u044b\u04a3\u049b-\u049b\u044b\u04a3\u049b
p864
(lp865
g3
asV\u0441\u0430\u043b\u0431\u0430-\u0441\u0430\u043b\u0431\u0430
p866
(lp867
g3
asV\u0435\u043b\u0435\u04a3-\u0441\u0435\u043b\u0435\u04a3
p868
(lp869
g3
asV\u0448\u0430\u043b\u049b\u0430\u049b-\u0448\u0430\u043b\u049b\u0430\u049b
p870
(lp871
g3
asV\u04b1\u043c\u0430\u0440-\u0436\u04b1\u043c\u0430\u0440
p872
(lp873
g3
asV\u0441\u0430\u0439\u043c\u0430-\u0441\u0430\u0439
p874
(lp875
g3
asV\u0436\u04b1\u043c\u044b\u043f-\u0436\u04b1\u043c\u044b\u043f
p876
(lp877
g3
asV\u0430\u0431\u044b\u0440-\u0434\u0430\u0431\u044b\u0440
p878
(lp879
g3
asV\u0431\u0443\u043c\u0430-\u0431\u0443\u043c\u0430
p880
(lp881
g3
asV\u0442\u043e\u043c\u043f\u0438\u0493\u0430\u043d-\u0442\u043e\u043c\u043f\u0438\u0493\u0430\u043d
p882
(lp883
g3
asV\u0436\u0430\u043b\u0493\u044b\u0437-\u0436\u0430\u043b\u0493\u044b\u0437
p884
(lp885
g3
asV\u043d\u0430\u043d-\u043f\u0430\u043d
p886
(lp887
g3
asV\u0430\u043b\u043f\u0430-\u0441\u0430\u043b\u043f\u0430\u049b
p888
(lp889
g3
asV\u049b\u0430\u0439-\u049b\u0430\u0439\u0434\u0430\u0493\u044b
p890
(lp891
g3
asV\u0431y\u043f-\u0431y\u0442\u0456\u043d
p892
(lp893
g3
asV\u043a\u04e9\u0439-\u043a\u04e9\u0439
p894
(lp895
g3
asV\u04b1\u0448\u044b\u049b-\u04b1\u0448\u044b\u049b
p896
(lp897
g3
asV\u0448\u0430\u043f-\u0448\u0430\u0493\u044b\u043d
p898
(lp899
g3
asV\u0436\u0430\u043f-\u0436\u0430\u0439\u0434\u0430\u049b
p900
(lp901
g3
asV\u049b\u0438\u043b\u044b-\u049b\u0438\u043b\u044b
p902
(lp903
g3
asV\u0430\u0439\u043d\u0430\u043b\u044b\u043f-\u0430\u0439\u043d\u0430\u043b\u044b\u043f
p904
(lp905
g3
asV\u0443\u0434\u0430-\u0434\u0443\u0434\u0430
p906
(lp907
g3
asV\u0448\u043e\u049b\u0438\u044b\u043f-\u0448\u043e\u049b\u0438\u044b\u043f
p908
(lp909
g3
asV\u04e9\u0440\u043a\u0435\u0448-\u04e9\u0440\u043a\u0435\u0448
p910
(lp911
g3
asV\u0435\u043b\u043f\u0435\u043a-\u0435\u043b\u043f\u0435\u043a
p912
(lp913
g3
asV\u043a\u04e9\u0437\u0431\u0435-\u043a\u04e9\u0437
p914
(lp915
g3
asV\u0431\u0456\u0440-\u0431\u0456\u0440\u0456\u043d\u0456\u04a3
p916
(lp917
g3
asV\u043a\u04e9\u0441\u0442\u0435\u04a3-\u043a\u04e9\u0441\u0442\u0435\u04a3
p918
(lp919
g3
asV\u043a\u04e9\u043c\u0431\u0435-\u043a\u04e9\u043c\u0431\u0435
p920
(lp921
g3
asV\u0434\u0435\u0440\u0442\u0435\u0434\u0435\u0439-\u0434\u0435\u0440\u0442\u0435\u0434\u0435\u0439
p922
(lp923
g3
asV\u043e\u049b\u0448\u0430\u0443-\u043e\u049b\u0448\u0430\u0443
p924
(lp925
g3
asV\u0441\u044b\u0440-\u0441\u044b\u0440
p926
(lp927
g3
asV\u043e\u043f-\u043e\u04a3\u0434\u044b
p928
(lp929
g3
asV\u0441\u044b\u043f\u0441\u044b\u04a3-\u0441\u044b\u043f\u0441\u044b\u04a3
p930
(lp931
g3
asV\u0442\u0430\u0440\u043f-\u0442\u0430\u0440\u043f
p932
(lp933
g3
asV\u043a\u0435\u04a3\u043a-\u043a\u0435\u04a3\u043a
p934
(lp935
g3
asV\u0431\u04b1\u0493\u0430-\u0431\u04b1\u0493\u0430
p936
(lp937
g3
asV\u0441\u0430\u043f-\u0441\u0430\u0440\u044b
p938
(lp939
g3
asV\u0431\u0456\u043f-\u0431\u0438\u0456\u043a
p940
(lp941
g3
asV\u0442\u044b\u043f\u0430-\u0442\u044b\u043d\u044b\u0448
p942
(lp943
g3
asV\u0431\u0430\u043b-\u0431\u04b1\u043b
p944
(lp945
g3
asV\u04d9\u043d\u0442\u0456\u0440\u0435\u043a-\u0442\u04d9\u043d\u0442\u0456\u0440\u0435\u043a
p946
(lp947
g3
asV\u049b\u044b\u043b\u0442\u044b\u04a3-\u049b\u044b\u043b\u0442\u044b\u04a3
p948
(lp949
g3
asV\u0430\u0440\u0430-\u0430\u0440\u0430\u0441\u044b
p950
(lp951
g3
asV\u0436\u0430\u043f-\u0436\u0430\u043b\u0430\u04a3\u0430\u0448
p952
(lp953
g3
asV\u0456\u0440\u0456-\u0456\u0440\u0456
p954
(lp955
g3
asV\u043a\u0435\u043a\u0456\u0440\u0435\u04a3-\u043a\u0435\u043a\u0456\u0440\u0435\u04a3
p956
(lp957
g3
asV\u0442\u04e9\u0440\u0435\u043c-\u0442\u04e9\u0440\u0435\u043c
p958
(lp959
g3
asV\u0430\u043f\u043f\u0430\u0439-\u0448\u0430\u043f\u043f\u0430\u0439
p960
(lp961
g3
asV\u0430\u043b\u0430-\u0436\u04b1\u043b\u0430\u049b
p962
(lp963
g3
asV\u0431\u04e9\u043b\u0442\u0435\u043a-\u0431\u04e9\u043b\u0442\u0435\u043a
p964
(lp965
g3
asV\u0436\u0430\u043f-\u0436\u0430\u0442\u044b\u049b
p966
(lp967
g3
asV\u0435\u043f\u0442\u0435\u043f-\u0435\u043f\u0442\u0435\u043f
p968
(lp969
g3
asV\u0436\u0430\u043f-\u0436\u0430\u0439\u043b\u044b
p970
(lp971
g3
asV\u043c\u044b\u0441-\u043c\u044b\u0441
p972
(lp973
g3
asV\u0438\u0437\u0435\u04a3-\u0438\u0437\u0435\u04a3
p974
(lp975
g3
asV\u0436\u044b\u043f-\u0436\u044b\u043b\u043c\u0430\u049b\u0430\u0439
p976
(lp977
g3
asV\u0431\u044b\u0440-\u0431\u044b\u0440
p978
(lp979
g3
asV\u0448\u04b1\u0440\u049b-\u0448\u04b1\u0440\u049b
p980
(lp981
g3
asV\u043d\u04e9\u0441\u0435\u0440-\u043d\u04e9\u0441\u0435\u0440
p982
(lp983
g3
asV\u0442\u0430\u0440\u0442\u044b\u043f-\u0442\u0430\u0440\u0442\u044b\u043f
p984
(lp985
g3
asV\u0448\u044b\u0440-\u0448\u044b\u0440
p986
(lp987
g3
asV\u0442\u043e\u043b\u049b\u044b\u043d-\u0442\u043e\u043b\u049b\u044b\u043d
p988
(lp989
g3
asV\u0431\u04d9\u043b\u0435-\u0431\u04d9\u0442\u0435\u0440
p990
(lp991
g3
asV\u049b\u0430\u0440\u044b\u043d-\u049b\u0430\u0440\u044b\u043d
p992
(lp993
g3
asV\u0442\u0430\u0440\u0430\u0443-\u0442\u0430\u0440\u0430\u0443
p994
(lp995
g3
asV\u043c\u0456\u043d\u0435-\u043c\u0456\u043d\u0435
p996
(lp997
g3
asV\u0431\u0435\u0442\u0456\u043c\u0435\u043d-\u0431\u0435\u0442
p998
(lp999
g3
asV\u043e\u0441\u044b\u043f-\u043e\u0441\u044b\u043f
p1000
(lp1001
g3
asV\u0435\u043a\u0435\u0443\u0434\u0435\u043d-\u0435\u043a\u0435\u0443
p1002
(lp1003
g3
asV\u0434\u0430\u043b\u0431\u0430\u049b-\u0434\u04b1\u043b\u0431\u0430\u049b
p1004
(lp1005
g3
asV\u0430\u0440\u0448\u0438-\u0430\u0440\u0448\u0438
p1006
(lp1007
g3
asV\u043a\u04e9\u0434\u0435\u0439-\u0441\u04e9\u0434\u0435\u0439
p1008
(lp1009
g3
asV\u043ay\u0439\u0435-\u043ay\u0439\u0435
p1010
(lp1011
g3
asV\u0441\u043e\u049b\u0438\u044b\u043f-\u0441\u043e\u049b\u0438\u044b\u043f
p1012
(lp1013
g3
asV\u043f\u043e\u0440\u0430-\u043f\u043e\u0440\u0430
p1014
(lp1015
g3
asV\u0442\u0438\u044b\u043d-\u0441\u0438\u044b\u043d
p1016
(lp1017
g3
asV\u049b\u044b\u043b\u043c\u044b\u04a3-\u049b\u044b\u043b\u043c\u044b\u04a3
p1018
(lp1019
g3
asV\u049b\u0430\u0440\u0441\u044b\u043c\u0430-\u049b\u0430\u0440\u0441\u044b
p1020
(lp1021
g3
asV\u0442\u0430\u043f-\u0442\u0430\u049b\u044b\u0440
p1022
(lp1023
g3
asV\u0441\u0443-\u0441\u0443
p1024
(lp1025
g3
asVy\u0434\u0435\u043f-y\u0434\u0435\u043f
p1026
(lp1027
g3
asV\u0431\u043e\u0440-\u0431\u043e\u0440
p1028
(lp1029
g3
asV\u0442\u04b1\u0440\u0443-\u0442\u04b1\u0440\u043c\u0430\u0443
p1030
(lp1031
g3
asV\u04e9\u043b\u0435-\u04e9\u043b\u0433\u0435\u043d\u0448\u0435
p1032
(lp1033
g3
asV\u049b\u0430\u0442-\u049b\u0430\u0431\u0430\u0442
p1034
(lp1035
g3
asV\u0431\u0430\u0440\u0430-\u0431\u0430\u0440
p1036
(lp1037
g3
asV\u043f\u04b1\u0448\u043f\u0430\u049b-\u043f\u04b1\u0448\u043f\u0430\u049b
p1038
(lp1039
g3
asVy\u043d-\u0442y\u043d
p1040
(lp1041
g3
asV\u0430\u0440\u0431\u0430\u049b\u0430\u0439-\u0441\u0430\u0440\u0431\u0430\u049b\u0430\u0439
p1042
(lp1043
g3
asV\u0442\u0430\u043f-\u0442\u04b1\u0439\u043d\u0430\u049b\u0442\u0430\u0439
p1044
(lp1045
g3
asV\u043a\u0435\u0439-\u043a\u0435\u0439\u0434\u0435
p1046
(lp1047
g3
asV\u043b\u0430\u043f-\u043b\u0430\u043f
p1048
(lp1049
g3
asV\u0441\u04e9\u0439\u043b\u0435\u043f-\u0441\u04e9\u0439\u043b\u0435\u043f
p1050
(lp1051
g3
asV\u0434y\u043c\u0434\u0435\u0439-\u0434y\u043c\u0434\u0435\u0439
p1052
(lp1053
g3
asV\u0431\u04b1\u043b\u044b\u04a3-\u0431\u04b1\u043b\u044b\u04a3
p1054
(lp1055
g3
asV\u0436\u04b1\u043f-\u0436\u04b1\u043f
p1056
(lp1057
g3
asV\u049b\u044b\u043b\u0430\u04a3-\u049b\u044b\u043b\u0430\u04a3
p1058
(lp1059
g3
asV\u0430\u043b\u044b\u043f-\u0430\u043b\u044b\u043f
p1060
(lp1061
g3
asV\u049b\u0430\u043f\u0430\u0448-\u049b\u049b\u04b1\u043f\u0430\u0448
p1062
(lp1063
g3
asV\u0441\u0443\u0434\u044b\u0440-\u0441\u0443\u0434\u044b\u0440
p1064
(lp1065
g3
asV\u0436\u0430\u04a3\u049b\u0430-\u043f\u0430\u04a3\u049b\u0430
p1066
(lp1067
g3
asV\u043a\u0435\u043b-\u043c\u0435\u043b
p1068
(lp1069
g3
asV\u044f\u0445\u0442-\u043a\u043b\u0443\u0431
p1070
(lp1071
g3
asV\u049b\u044b\u043c-\u049b\u0438\u0493\u0430\u0448
p1072
(lp1073
g3
asV\u0436\u043e\u043d-\u0436\u043e\u043d
p1074
(lp1075
g3
asV\u0434\u04d9\u043b\u043c\u0435-\u0434\u04d9\u043b
p1076
(lp1077
g3
asV\u0430\u0439\u0493\u044b\u0437-\u0430\u0439\u0493\u044b\u0437
p1078
(lp1079
g3
asV\u049b\u0430\u0431\u044b\u043b-\u049b\u04b1\u0431\u044b\u043b
p1080
(lp1081
g3
asV\u0442\u0430\u0493\u044b\u043b-\u0442\u04b1\u049b\u044b\u043b
p1082
(lp1083
g3
asV\u0436\u04b1\u043f-\u0436\u04b1\u043c\u044b\u0440
p1084
(lp1085
g3
asV\u0431\u043e\u043b-\u0431\u043e\u043b\u0434\u0430
p1086
(lp1087
g3
asV\u0442\u0430\u0440\u0430\u0442\u044b\u043f-\u0442\u0430\u0440\u0430\u0442\u044b\u043f
p1088
(lp1089
g3
asV\u043e\u043f\u044b\u0440-\u0442\u043e\u043f\u044b\u0440
p1090
(lp1091
g3
asV\u0431\u04b1\u0440\u0430\u043f-\u0431\u04b1\u0440\u0430\u043f
p1092
(lp1093
g3
asV\u0430\u04a3\u044b\u0440\u0430\u0439\u044b\u043f-\u0430\u04a3\u044b\u0440\u0430\u0439\u044b\u043f
p1094
(lp1095
g3
asV\u0434\u043e\u043b\u0430-\u0434\u043e\u043b\u0430
p1096
(lp1097
g3
asV\u0448\u0430\u0440-\u0448\u0430\u0440
p1098
(lp1099
g3
asV\u0435\u043b\u0431\u0435-\u0434\u0435\u043b\u0431\u0435
p1100
(lp1101
g3
asV\u0430\u0436\u044b\u0440\u0430\u04a3-\u0430\u0436\u044b\u0440\u0430\u04a3
p1102
(lp1103
g3
asV\u0442\u0430\u0443-\u0442\u0430\u0443
p1104
(lp1105
g3
asVy\u043f-y\u0448\u043a\u0456\u0440
p1106
(lp1107
g3
asV\u0435\u043b\u0434\u0456-\u0435\u043b\u0456\u043d\u0435
p1108
(lp1109
g3
asV\u04e9\u043a\u0442\u0456\u043c-\u04e9\u043a\u0442\u0456\u043c
p1110
(lp1111
g3
asV\u049b\u04b1\u0440-\u049b\u04b1\u0440\u043b\u0430
p1112
(lp1113
g3
asV\u049b\u043e\u0436\u0430\u043b\u0430\u049b-\u049b\u043e\u0436\u0430\u043b\u0430\u049b
p1114
(lp1115
g3
asV\u04d9\u0443\u043a\u0456\u043c-\u04d9\u0443\u043a\u0456\u043c
p1116
(lp1117
g3
asV\u043c\u0430\u0439\u043b\u0430\u043f-\u0441\u0430\u0439\u043b\u0430\u043f
p1118
(lp1119
g3
asV\u043a\u04e9\u0441-\u043a\u04e9\u0441
p1120
(lp1121
g3
asV\u0430\u043f\u044b\u043b-\u0493\u04b1\u043f\u044b\u043b
p1122
(lp1123
g3
asV\u049b\u04b1\u0441\u044b\u043f-\u049b\u04b1\u0441\u044b\u043f
p1124
(lp1125
g3
asV\u043a\u0435\u043c\u0434\u0435-\u043a\u0435\u043c
p1126
(lp1127
g3
asV\u0435\u043b\u0431\u0435\u04a3-\u0435\u043b\u0431\u0435\u04a3
p1128
(lp1129
g3
asV\u043d\u0430\u043c\u044b\u0441-\u043c\u0430\u043c\u044b\u0441
p1130
(lp1131
g3
asV\u049b\u0430\u049b\u0448\u0430\u04a3-\u049b\u0430\u049b\u0448\u0430\u04a3
p1132
(lp1133
g3
asV\u0436\u044b\u043f-\u0436\u044b\u043b\u0434\u0430\u043c
p1134
(lp1135
g3
asV\u0431\u04e9\u043b\u0448\u0435\u043a-\u0431\u04e9\u043b\u0448\u0435\u043a
p1136
(lp1137
g3
asV\u0442\u04d9\u0442\u0442\u0456-\u043f\u04d9\u0442\u0442\u0456
p1138
(lp1139
g3
asV\u0435\u0440\u0435\u04a3-\u0441\u0435\u0440\u0435\u04a3
p1140
(lp1141
g3
asV\u044b\u0440\u044b\u043c-\u0441\u044b\u0440\u044b\u043c
p1142
(lp1143
g3
asV\u0430\u0443\u049b\u0430\u0442-\u0441\u0430\u0443\u049b\u0430\u0442
p1144
(lp1145
g3
asV\u0442\u0435\u043c\u0456\u0440-\u0442\u04b1\u043c\u044b\u0440
p1146
(lp1147
g3
asV\u043b\u0435\u043f-\u043b\u0435\u0437\u0434\u0435
p1148
(lp1149
g3
asV\u0448\u0456\u043f-\u0448\u0438\u043a\u0456\u043b
p1150
(lp1151
g3
asV\u0434\u0443\u0430\u0434\u0430\u049b\u0442\u0430\u0439-\u0434\u0443\u0430\u0434\u0430\u049b\u0442\u0430\u0439
p1152
(lp1153
g3
asV\u0435\u043d\u0434\u0456-\u0435\u043d\u0434\u0456
p1154
(lp1155
g3
asV\u0430\u0493\u044b\u0437\u044b\u043f-\u0430\u0493\u044b\u0437\u044b\u043f
p1156
(lp1157
g3
asV\u0434\u0430\u0493\u0430\u0440-\u0434\u0430\u0493\u0430\u0440
p1158
(lp1159
g3
asV\u0430\u043b\u0448\u0430\u04a3-\u0430\u0448\u0430\u04a3
p1160
(lp1161
g3
asV\u0442\u044b\u043f-\u0442\u044b\u049b\u044b\u0440
p1162
(lp1163
g3
asV\u0442\u0430\u043f\u0430-\u0442\u044b\u043f
p1164
(lp1165
g3
asV\u043c\u0430\u043b-\u043f\u0430\u043b
p1166
(lp1167
g3
asV\u0441y\u043f-\u0441y\u0439\u0456\u0440
p1168
(lp1169
g3
asV\u0442\u044b\u0440\u0430\u044f-\u0442\u044b\u0440\u0430\u044f
p1170
(lp1171
g3
asV\u049b\u0430\u043f-\u049b\u0430\u0440\u0430\u04a3\u0493\u044b
p1172
(lp1173
g3
asV\u0434\u04e9\u0439\u0442-\u0434\u04e9\u0439\u0442
p1174
(lp1175
g3
asV\u0436\u044b\u043b\u043c\u0430\u04a3-\u0436\u044b\u043b\u043c\u0430\u04a3
p1176
(lp1177
g3
asV\u0436\u04b1\u0434\u044b\u0440\u044b\u049b\u0442\u0430\u0439-\u0436\u04b1\u0434\u044b\u0440\u044b\u049b\u0442\u0430\u0439
p1178
(lp1179
g3
asV\u049b\u04b1\u0434\u0430-\u0430\u043d\u0434\u0430\u043b\u044b\u049b
p1180
(lp1181
g3
asV\u043a\u0456\u0440\u0442-\u043a\u0456\u0440\u0442
p1182
(lp1183
g3
asV\u049b\u04b1\u0434\u0438-\u0441\u04b1\u0434\u0438
p1184
(lp1185
g3
asV\u049b\u0430\u0448\u044b\u0440-\u049b\u0430\u0448\u044b\u0440
p1186
(lp1187
g3
asV\u0442\u0430\u0431\u044b\u043d-\u0442\u0430\u0431\u044b\u043d
p1188
(lp1189
g3
asV\u043a\u0435\u0437\u0435\u043a\u043f\u0435-\u043a\u0435\u0437\u0435\u043a
p1190
(lp1191
g3
asV\u043a\u0435\u043c\u0441\u0435\u04a3-\u043a\u0435\u043c\u0441\u0435\u04a3
p1192
(lp1193
g3
asV\u049b\u043e\u043d\u0430\u0440-\u049b\u043e\u043d\u0431\u0430\u0441\u0442\u0430\u043d
p1194
(lp1195
g3
asV\u0431\u043e\u0440\u0430\u043d-\u043c\u043e\u0440\u0430\u043d
p1196
(lp1197
g3
asV\u0436\u0435\u043b\u043f-\u0436\u0435\u043b\u043f
p1198
(lp1199
g3
asV\u049b\u0430\u043b\u0430\u0439-\u049b\u0430\u043b\u0430\u0439
p1200
(lp1201
g3
asV\u049b\u043e\u0441\u044b\u043b\u0430-\u049b\u043e\u0441\u044b\u043b\u0430
p1202
(lp1203
g3
asV\u049b\u0430\u0434\u0430-\u049b\u0430\u0434\u0430\u049b
p1204
(lp1205
g3
asV\u0431\u0435\u0439-\u0431\u0435\u0440\u0435\u043a\u0435\u0442
p1206
(lp1207
g3
asV\u0431\u0430\u0443-\u0431\u0430\u0443\u044b\u043c\u0435\u043d
p1208
(lp1209
g3
asV\u049b\u0430\u043b\u0442-\u049b\u0430\u043b\u0442
p1210
(lp1211
g3
asV\u0430\u043f\u0430-\u0441\u0430\u043f\u0430
p1212
(lp1213
g3
asV\u04b1\u0439\u049b\u044b-\u0442\u04b1\u0439\u049b\u044b
p1214
(lp1215
g3
asV\u0431\u043e\u0439\u043b\u044b-\u0441\u043e\u0439\u043b\u044b
p1216
(lp1217
g3
asV\u0442\u0430\u0440\u0493\u044b\u043b-\u0442\u0430\u0440\u0493\u044b\u043b
p1218
(lp1219
g3
asV\u043f\u0430\u0440\u0448\u0430-\u043f\u0430\u0440\u0448\u0430
p1220
(lp1221
g3
asV\u0431\u04e9\u043b\u043c\u0435-\u0431\u04e9\u043b\u043c\u0435
p1222
(lp1223
g3
asV\u049b\u043e\u043c\u043f\u0430\u04a3-\u049b\u043e\u043c\u043f\u0430\u04a3
p1224
(lp1225
g3
asV\u049b\u0430\u0440\u0430\u0443\u044b\u0442\u044b\u043f-\u049b\u0430\u0440\u0430\u0443\u044b\u0442\u044b\u043f
p1226
(lp1227
g3
asV\u043a\u0435\u043a\u0456\u0440\u0435-\u043a\u0435\u043a\u0456\u0440\u0435
p1228
(lp1229
g3
asV\u0448\u043e\u049b\u044b-\u0448\u043e\u049b\u044b
p1230
(lp1231
g3
asV\u0442y\u043f-\u0442y\u0437\u0443
p1232
(lp1233
g3
asV\u0431\u0430\u0439\u043f\u0430\u04a3-\u0431\u0430\u0439\u043f\u0430\u04a3
p1234
(lp1235
g3
asV\u0448\u04d9\u043d\u0438\u0456\u043f-\u0448\u04d9\u043d\u0438\u0456\u043f
p1236
(lp1237
g3
asV\u0430\u043b\u0434\u044b\u0440-\u0431\u04b1\u043b\u0434\u044b\u0440
p1238
(lp1239
g3
asV\u044b\u0440\u0441\u0438\u044b\u043f-\u044b\u0440\u0441\u0438\u044b\u043f
p1240
(lp1241
g3
asV\u0436\u0430\u043f-\u0436\u0430\u043b\u043f\u0430\u049b
p1242
(lp1243
g3
asV\u0431y\u0433\u0436\u0435\u04a3-\u0431y\u0433\u0436\u0435\u04a3
p1244
(lp1245
g3
asV\u0430\u0440\u0442\u044b\u043d\u044b\u043f-\u0442\u0430\u0440\u0442\u044b\u043d\u044b\u043f
p1246
(lp1247
g3
asV\u0436\u044b\u0440\u044b\u043c-\u0436\u044b\u0440\u044b\u043c
p1248
(lp1249
g3
asV\u0436\u04b1\u043b\u049b\u044b\u043d\u044b\u043f-\u0436\u04b1\u043b\u049b\u044b\u043d\u044b\u043f
p1250
(lp1251
g3
asV\u0442\u0456\u043f\u04d9-\u0442\u0456\u043f\u04d9
p1252
(lp1253
g3
asV\u0436\u0430\u04a3\u049b\u0430-\u0436\u0430\u04a3\u049b\u0430
p1254
(lp1255
g3
asV\u043e\u0440\u044b\u043d-\u043e\u0440\u043d\u044b\u043c\u0435\u043d
p1256
(lp1257
g3
asV\u0431\u0456\u0440\u0435\u0443-\u043c\u0456\u0440\u0435\u0443
p1258
(lp1259
g3
asV\u0430\u04a3\u043b\u0430\u0443-\u0441\u0430\u04a3\u043b\u0430\u0443
p1260
(lp1261
g3
asV\u0434\u04e9\u0439-\u0434\u04e9\u0439
p1262
(lp1263
g3
asV\u0448\u0430\u043f-\u0448\u0430\u049b
p1264
(lp1265
g3
asV\u0431\u0430\u0441-\u0431\u0430\u0441\u044b\u043d\u0430
p1266
(lp1267
g3
asV\u049b\u0438\u044b\u0440\u043c\u0430\u043d-\u0448\u0438\u044b\u0440\u043c\u0430\u043d
p1268
(lp1269
g3
asV\u04e9\u0440\u0435-\u0448\u04e9\u0440\u0435
p1270
(lp1271
g3
asVy\u0439\u043c\u0435-\u0436y\u0439\u043c\u0435
p1272
(lp1273
g3
asV\u0430\u0440\u049b\u0430\u043b\u0430\u0439-\u043c\u0430\u0440\u049b\u0430\u043b\u0430\u0439
p1274
(lp1275
g3
asV\u049b\u04b1\u043b\u0430\u0448-\u049b\u04b1\u043b\u0430\u0448
p1276
(lp1277
g3
asV\u043a\u0435\u0437\u0435\u043a-\u043c\u0435\u0437\u0435\u043a
p1278
(lp1279
g3
asV\u043e\u043f\u0430\u0439-\u0442\u043e\u043f\u0430\u0439
p1280
(lp1281
g3
asV\u0443\u043c\u0430\u0436-\u0443\u043c\u0430\u0436
p1282
(lp1283
g3
asV\u0441\u0430\u04a3\u049b-\u0441\u04b1\u04a3\u049b
p1284
(lp1285
g3
asV\u044b\u0448\u049b\u044b\u043d\u044b\u043f-\u044b\u0448\u049b\u044b\u043d\u044b\u043f
p1286
(lp1287
g3
asV\u0441\u0430\u0442\u044b-\u0441\u0430\u0442\u044b
p1288
(lp1289
g3
asV\u0431\u0456\u0440\u0442\u0435-\u0431\u0456\u0440\u0442\u0435
p1290
(lp1291
g3
asV\u0441\u0435\u043f-\u0441\u0435\u043b\u0434\u0456\u0440
p1292
(lp1293
g3
asV\u0430\u0441\u049b\u0430\u0440-\u0430\u0441\u049b\u0430\u0440
p1294
(lp1295
g3
asVy\u0441\u0442\u0456\u043d-y\u0441\u0442\u0456\u043d
p1296
(lp1297
g3
asV\u0448\u0430\u04a3-\u0448\u0430\u04a3
p1298
(lp1299
g3
asV\u0430\u0431\u044b\u043d\u044b\u043f-\u0430\u0431\u044b\u043d\u044b\u043f
p1300
(lp1301
g3
asV\u043e\u0439\u043f\u044b\u043b-\u0442\u043e\u0439\u043f\u044b\u043b
p1302
(lp1303
g3
asVy\u0439\u0456\u0440\u043c\u0435\u043b\u0456-\u0448y\u0439\u0456\u0440\u043c\u0435\u043b\u0456
p1304
(lp1305
g3
asV\u0438\u0442\u0435\u04a3-\u0438\u0442\u0435\u04a3
p1306
(lp1307
g3
asV\u049b\u0438\u043f\u0430\u049b\u0442\u0430\u043f-\u0441\u0438\u043f\u0430\u049b\u0442\u0430\u043f
p1308
(lp1309
g3
asV\u0436\u0430\u049b\u043f\u0430\u0440-\u0436\u0430\u049b\u043f\u0430\u0440
p1310
(lp1311
g3
asV\u0435\u0440\u0456\u043a\u0441\u0456\u0437\u0434\u0435\u043d-\u0435\u0440\u0456\u043a\u0441\u0456\u0437
p1312
(lp1313
g3
asV\u0442\u0435\u043c-\u0442\u0435\u043c
p1314
(lp1315
g3
asV\u049b\u0438\u043f\u0430\u04a3-\u049b\u0438\u043f\u0430\u04a3
p1316
(lp1317
g3
asV\u049b\u0430\u0440\u0431\u0430\u04a3-\u049b\u04b1\u0440\u0431\u0430\u04a3
p1318
(lp1319
g3
asV\u0436\u0430\u043c\u0430\u0443-\u0436\u0430\u043c\u0430\u0443
p1320
(lp1321
g3
asV\u0441\u0430\u0431\u0430\u0443\u0434\u0430\u0439-\u0441\u0430\u0431\u0430\u0443\u0434\u0430\u0439
p1322
(lp1323
g3
asV\u0430\u043b\u0448\u0430\u04a3-\u0430\u043b\u0448\u0430\u04a3
p1324
(lp1325
g3
asV\u049b\u0430\u0493\u0430-\u043c\u0430\u0493\u0430
p1326
(lp1327
g3
asV\u0431\u0456\u0440\u0456\u043c\u0435\u043d-\u0431\u0456\u0440\u0456
p1328
(lp1329
g3
asV\u0434\u044b\u0440\u0434\u0430\u0439-\u0434\u044b\u0440\u0434\u0430\u0439
p1330
(lp1331
g3
asV\u043a\u0435\u043b\u0456\u043f-\u043a\u0435\u043b\u0456\u043f
p1332
(lp1333
g3
asV\u0430\u0439-\u0448\u0430\u0439
p1334
(lp1335
g3
asV\u0430\u0448\u0442\u0430\u043d-\u0430\u0448
p1336
(lp1337
g3
asV\u043c\u043e\u043f-\u043c\u043e\u043c\u0430\u049b\u0430\u043d
p1338
(lp1339
g3
asV\u0436\u0443\u044b\u043b\u0430-\u0436\u0443\u044b\u043b\u0430
p1340
(lp1341
g3
asV\u0431\u0430\u049b\u0430\u0440-\u0448\u0430\u049b\u0430\u0440
p1342
(lp1343
g3
asV\u0430\u0439\u0434\u0430\u049b-\u0441\u0430\u0439\u0434\u0430\u049b
p1344
(lp1345
g3
asV\u043c\u044b\u04a3\u049b\u0438-\u0434\u044b\u04a3\u049b\u0438
p1346
(lp1347
g3
asVy\u043b\u043a\u0435\u043d-y\u043b\u043a\u0435\u043d
p1348
(lp1349
g3
asV\u0430\u043b\u0430\u049b\u0442\u0430\u043f-\u0436\u04b1\u043b\u0430\u049b\u0442\u0430
p1350
(lp1351
g3
asV\u043ay\u0436-\u043ay\u0436
p1352
(lp1353
g3
asV\u0436\u0430\u0440\u049b\u044b\u043d-\u0436\u0430\u0440\u049b\u044b\u043d
p1354
(lp1355
g3
asV\u049b\u0430\u0440-\u049b\u0430\u0440
p1356
(lp1357
g3
asV\u049b\u0430\u043f-\u049b\u0430\u043b\u044b\u04a3
p1358
(lp1359
g3
asV\u049b\u0438\u049b\u0430\u04a3-\u0441\u0438\u049b\u0430\u04a3
p1360
(lp1361
g3
asV\u043c\u043e\u0436\u0430-\u043c\u043e\u0436\u0430
p1362
(lp1363
g3
asV\u0436\u0430\u0440-\u0436\u0430\u0440
p1364
(lp1365
g3
asV\u0434\u0430\u043b\u0434\u044b\u04a3-\u0434\u04b1\u043b\u0434\u044b\u04a3
p1366
(lp1367
g3
asV\u044b\u043c-\u0436\u044b\u043c
p1368
(lp1369
g3
asV\u0434\u044b\u04a3-\u0434\u044b\u04a3
p1370
(lp1371
g3
asV\u0437\u0443-\u0437\u0443
p1372
(lp1373
g3
asV\u0448\u044b\u0436-\u0431\u044b\u0436
p1374
(lp1375
g3
asV\u043a\u0456\u043c\u0434\u0435-\u043a\u0456\u043c
p1376
(lp1377
g3
asV\u0442\u044b\u043f\u044b\u04a3-\u0442\u044b\u043f\u044b\u04a3
p1378
(lp1379
g3
asV\u0436\u044b\u043b\u0430\u0439-\u0436\u044b\u043b\u0430\u0439
p1380
(lp1381
g3
asV\u043e\u0439\u044b\u043f-\u043e\u0439\u044b\u043f
p1382
(lp1383
g3
asV\u04e9\u0437\u0456\u043d-\u04e9\u0437\u0456
p1384
(lp1385
g3
asV\u043e\u049b\u044b\u0442\u044b\u043f-\u0442\u043e\u049b\u044b\u0442\u044b\u043f
p1386
(lp1387
g3
asV\u0431\u0430\u0441\u049b\u0430-\u0431\u0430\u0441\u049b\u0430
p1388
(lp1389
g3
asV\u0431\u04e9\u043b\u0456\u043f-\u0431\u04e9\u043b\u0456\u043f
p1390
(lp1391
g3
asV\u0441\u04e9\u0439\u0442\u0435-\u0441\u04e9\u0439\u0442\u0435
p1392
(lp1393
g3
asV\u0434\u044b\u0440-\u0434\u044b\u0440
p1394
(lp1395
g3
asV\u0430\u043b\u044b\u0441-\u0430\u043b\u044b\u0441
p1396
(lp1397
g3
asV\u049b\u0430\u0443\u049b\u044b\u043b-\u049b\u0430\u0443\u049b\u044b\u043b
p1398
(lp1399
g3
asV\u0434\u04e9\u043f-\u0434\u04e9\u04a3\u0433\u0435\u043b\u0435\u043a
p1400
(lp1401
g3
asV\u0431\u0430\u0441\u0442\u044b-\u0431\u0430\u0441\u0442\u044b
p1402
(lp1403
g3
asV\u049b\u043e\u0431\u044b\u0440-\u049b\u043e\u0431\u044b\u0440
p1404
(lp1405
g3
asV\u043f\u04d9\u0440\u04d9-\u043f\u04d9\u0440\u04d9
p1406
(lp1407
g3
asV\u0448\u0430\u04a3-\u0448\u04b1\u04a3
p1408
(lp1409
g3
asV\u0448\u043e\u049b\u0430\u04a3-\u0448\u043e\u049b\u0430\u04a3
p1410
(lp1411
g3
asV\u0431\u044b\u043b\u0448-\u0431\u044b\u043b\u0448
p1412
(lp1413
g3
asV\u043f\u044b\u0441-\u043f\u044b\u0441
p1414
(lp1415
g3
asV\u0436\u044b\u0440\u049b-\u0436\u044b\u0440\u049b
p1416
(lp1417
g3
asV\u0441\u0430\u0493\u0430\u043b\u0442\u0430\u0439-\u0441\u0430\u0493\u0430\u043b\u0442\u0430\u0439
p1418
(lp1419
g3
asV\u0448\u043e\u043c\u0430-\u0448\u043e\u043c\u0430
p1420
(lp1421
g3
asV\u049b\u0430\u0442\u044b\u043f-\u049b\u0430\u0442\u044b\u043f
p1422
(lp1423
g3
asV\u043e\u049b\u043f\u0430\u043d-\u0442\u043e\u049b\u043f\u0430\u043d
p1424
(lp1425
g3
asV\u0434\u0430\u0440-\u0434\u0430\u0440
p1426
(lp1427
g3
asV\u049b\u0430\u043b\u0431\u0430\u043b\u0430\u04a3-\u049b\u04b1\u043b\u0431\u0430\u043b\u0430\u04a3
p1428
(lp1429
g3
asV\u04b1\u044f\u043b\u0430-\u04b1\u044f\u043b\u0430
p1430
(lp1431
g3
asV\u049b\u0438\u049b\u0438\u044b\u043f-\u0436\u0438\u049b\u0438\u044b\u043f
p1432
(lp1433
g3
asV\u0430\u043f-\u0441\u0430\u043f
p1434
(lp1435
g3
asV\u0441\u0443\u043c\u0430\u04a3-\u0441\u0443\u043c\u0430\u04a3
p1436
(lp1437
g3
asV\u0430\u0493\u0430\u0448-\u0430\u0493\u0430\u0448\u0442\u044b\u04a3
p1438
(lp1439
g3
asV\u0438\u0442\u0435\u0440\u0456\u043f-\u0438\u0442\u0435\u0440\u0456\u043f
p1440
(lp1441
g3
asV\u0440\u0443-\u0440\u0443
p1442
(lp1443
g3
asV\u043f\u044b\u0448-\u043f\u044b\u0448
p1444
(lp1445
g3
asV\u0434\u04e9\u04a3-\u0434\u04e9\u04a3
p1446
(lp1447
g3
asV\u0434\u04d9\u043b\u0434y\u04a3-\u0434y\u043b\u0434\u0456\u04a3
p1448
(lp1449
g3
asV\u0442\u043e\u043f-\u0442\u043e\u043b\u044b\u049b
p1450
(lp1451
g3
asVy\u0437\u0435-\u043cy\u0437\u0435
p1452
(lp1453
g3
asV\u0436\u044b\u043b\u0442-\u0436\u044b\u043b\u0442
p1454
(lp1455
g3
asV\u0431\u04e9\u043b\u0435-\u0441\u04e9\u043b\u0435
p1456
(lp1457
g3
asV\u0436\u0430\u04a3-\u0436\u04b1\u04a3
p1458
(lp1459
g3
asV\u043e\u043b\u0431\u044b\u0440-\u0441\u043e\u043b\u0431\u044b\u0440
p1460
(lp1461
g3
asV\u0448\u0435\u04a3\u0433\u0435\u043b-\u0448\u0435\u04a3\u0433\u0435\u043b
p1462
(lp1463
g3
asV\u049b\u04b1\u0440\u0443-\u049b\u04b1\u0440\u0443\u043b\u0430
p1464
(lp1465
g3
asV\u0448\u043e\u049b\u043f\u044b\u0442-\u0448\u043e\u049b\u043f\u044b\u0442
p1466
(lp1467
g3
asV\u0431\u0456\u0440-\u0431\u0456\u0440\u0456\u043d\u0435\u043d
p1468
(lp1469
g3
asV\u0430\u0437\u0430\u0440-\u0430\u0437\u0430\u0440
p1470
(lp1471
g3
asV\u0436\u044b\u049b\u043f\u044b\u043b-\u0436\u044b\u049b\u043f\u044b\u043b
p1472
(lp1473
g3
asV\u043ay\u0440\u0434\u0435\u043a-\u043ay\u0440\u0434\u0435\u043a
p1474
(lp1475
g3
asV\u043e\u0440\u0493\u044b\u043f-\u043e\u0440\u0493\u044b\u043f
p1476
(lp1477
g3
asV\u0431\u044b\u0436\u044b\u0440-\u0431\u044b\u0436\u044b\u0440
p1478
(lp1479
g3
asV\u043a\u0456\u0431\u0456\u0440\u0442\u0456\u043a\u0442\u0435\u0439-\u043a\u0456\u0431\u0456\u0440\u0442\u0456\u043a\u0442\u0435\u0439
p1480
(lp1481
g3
asV\u04d9\u0440\u043a\u0456\u043c-\u04d9\u0440\u043a\u0456\u043c
p1482
(lp1483
g3
asV\u043f\u0456\u0434\u0438\u044f-\u0441\u0456\u0434\u0438\u044f
p1484
(lp1485
g3
asV\u043c\u0430\u0439\u043c\u0430\u04a3-\u043c\u0430\u0439\u043c\u0430\u04a3
p1486
(lp1487
g3
asV\u0433y\u0436-\u0433y\u0436\u0434\u0435
p1488
(lp1489
g3
asV\u0431\u04b1\u043b\u0430\u04a3-\u0431\u04b1\u043b\u0430\u04a3
p1490
(lp1491
g3
asV\u043f\u044b\u0440-\u043f\u044b\u0440
p1492
(lp1493
g3
asV\u0441\u04e9\u0439\u043b\u0435\u0439-\u0441\u04e9\u0439\u043b\u0435\u0439
p1494
(lp1495
g3
asV\u0431\u0430\u049b\u0430\u043d\u0434\u0430\u0439-\u0431\u0430\u049b\u0430\u043d\u0434\u0430\u0439
p1496
(lp1497
g3
asV\u0434\u0443\u0434\u0430-\u0434\u0443\u0434\u0430
p1498
(lp1499
g3
asV\u0436\u0435\u043b\u0435\u04a3-\u0436\u0435\u043b\u0435\u04a3
p1500
(lp1501
g3
asV\u0441\u0430\u043f-\u0441\u0430\u043b\u049b\u044b\u043d
p1502
(lp1503
g3
asV\u043f\u044b\u0448-\u043f\u044b\u0448\u0442\u0430
p1504
(lp1505
g3
asV\u0431\u0430\u0439\u0442\u0430\u043b-\u0441\u0430\u0439\u0442\u0430\u043b
p1506
(lp1507
g3
asV\u0441\u0435\u043b\u043a-\u0441\u0435\u043b\u043a
p1508
(lp1509
g3
asV\u0431\u0430\u0442\u043f\u0430\u049b\u0442\u0430\u0439-\u0431\u0430\u0442\u043f\u0430\u049b\u0442\u0430\u0439
p1510
(lp1511
g3
asV\u043a\u0456\u0448\u0442-\u043a\u0456\u0448\u0442
p1512
(lp1513
g3
asV\u0436\u0430\u043b\u0442\u0430\u04a3-\u0436\u04b1\u043b\u0442\u0430\u04a3
p1514
(lp1515
g3
asV\u0448\u043e\u0439\u049b\u0430\u04a3-\u0448\u043e\u0439\u049b\u0430\u04a3
p1516
(lp1517
g3
asV\u043e\u043b\u043f\u044b-\u0441\u043e\u043b\u043f\u044b
p1518
(lp1519
g3
asV\u0435\u043a\u0448\u0435\u043f-\u0435\u043a\u0448\u0435\u043f
p1520
(lp1521
g3
asV\u04d9\u043b\u0435\u043a\u0435\u0439-\u0448\u04d9\u043b\u0435\u043a\u0435\u0439
p1522
(lp1523
g3
asV\u0448\u04e9\u0440\u0435-\u0448\u04e9\u0440\u0435
p1524
(lp1525
g3
asV\u04d9\u0439\u0434\u0456\u043a-\u04d9\u0439\u0434\u0456\u043a
p1526
(lp1527
g3
asV\u0442\u044b\u0440\u0431\u044b\u04a3-\u0442\u044b\u0440\u0431\u044b\u04a3
p1528
(lp1529
g3
asV\u0436\u04b1\u043f-\u0436\u0443\u0430\u043d
p1530
(lp1531
g3
asV\u043a\u0435\u0441\u0435\u043a-\u043a\u0435\u0441\u0435\u043a
p1532
(lp1533
g3
asV\u049b\u0430\u043b\u0442\u0430-\u049b\u04b1\u043b\u0442\u0430\u049b
p1534
(lp1535
g3
asV\u0434\u0456\u04a3\u0433\u0435\u043a\u0442\u0435\u0439-\u0434\u0456\u04a3\u0433\u0435\u043a\u0442\u0435\u0439
p1536
(lp1537
g3
asV\u0434\u0430\u0443\u0440\u044b\u049b-\u0441\u0430\u0443\u0440\u044b\u049b
p1538
(lp1539
g3
asV\u0434\u044b\u0431\u044b\u0440-\u0434\u044b\u0431\u044b\u0440
p1540
(lp1541
g3
asV\u0442y\u0440\u043c\u0435-\u0442y\u0440\u043c\u0435\u043d\u0456
p1542
(lp1543
g3
asV\u0435\u0433\u0456\u0437-\u0435\u0433\u0456\u0437
p1544
(lp1545
g3
asV\u0436\u04b1\u043f-\u0436\u0443\u0430\u0441
p1546
(lp1547
g3
asV\u049b\u043e\u0441-\u049b\u043e\u0441\u0442\u0430\u043d
p1548
(lp1549
g3
asV\u0456\u0440\u043a\u0456\u0441-\u0442\u0456\u0440\u043a\u0456\u0441
p1550
(lp1551
g3
asV\u049b\u043e\u0441-\u049b\u043e\u0441\u0442\u0430\u043f
p1552
(lp1553
g3
asV\u0436\u043e\u043d\u0434\u0430\u043f-\u0436\u043e\u043d\u0434\u0430\u043f
p1554
(lp1555
g3
asV\u0434\u0456\u04a3\u0433\u0456\u043b-\u0434\u0456\u04a3\u0433\u0456\u043b
p1556
(lp1557
g3
asV\u0436\u044b\u043c\u044b\u04a3-\u0436\u044b\u043c\u044b\u04a3
p1558
(lp1559
g3
asV\u0442\u0430\u043f-\u0442\u0430\u043f
p1560
(lp1561
g3
asV\u0430\u043f\u044b\u043b-\u0442\u04b1\u043f\u044b\u043b
p1562
(lp1563
g3
asV\u043c\u0435\u043d-\u043c\u0435\u043d
p1564
(lp1565
g3
asV\u049b\u0443\u0430-\u049b\u0443\u0430
p1566
(lp1567
g3
asV\u0442\u0430\u0440\u0441\u044b\u043b-\u0442\u04b1\u0440\u0441\u044b\u043b
p1568
(lp1569
g3
asV\u0442\u043e\u04a3\u049b-\u0442\u043e\u04a3\u049b
p1570
(lp1571
g3
asV\u044b\u0440\u0431\u0430\u04a3\u0434\u0430\u043f-\u0436\u044b\u0440\u0431\u0430\u04a3\u0434\u0430\u043f
p1572
(lp1573
g3
asV\u0431\u0456\u0440-\u0431\u0456\u0440\u0456\u043c\u0435\u043d
p1574
(lp1575
g3
asV\u0448\u0430\u0439-\u043f\u0430\u0439
p1576
(lp1577
g3
asV\u043ay\u0440\u0442-\u043ay\u0440\u0442
p1578
(lp1579
g3
asV\u0441y\u0439\u0440\u0435\u0442\u0435-\u043cy\u0439\u0440\u0435\u0442\u0435
p1580
(lp1581
g3
asV\u049b\u0438\u049b\u044b\u043c-\u0441\u0438\u049b\u044b\u043c
p1582
(lp1583
g3
asV\u0434y\u04a3\u043a-\u0434y\u04a3\u043a
p1584
(lp1585
g3
asV\u0436\u0430\u0440\u044b\u0441\u044b\u043f-\u0436\u0430\u0440\u044b\u0441\u044b\u043f
p1586
(lp1587
g3
asV\u049b\u043e\u0442\u044b\u0440-\u049b\u043e\u0442\u044b\u0440
p1588
(lp1589
g3
asV\u04d9\u0440\u043f\u0456-\u0442\u04d9\u0440\u043f\u0456
p1590
(lp1591
g3
asV\u049b\u044b\u043b\u0448\u044b\u049b-\u049b\u044b\u043b\u0448\u044b\u049b
p1592
(lp1593
g3
asV\u04e9\u0437\u0456\u043d\u0435-\u04e9\u0437\u0456
p1594
(lp1595
g3
asV\u0431\u044b\u049b-\u0431\u044b\u049b
p1596
(lp1597
g3
asV\u0431\u0430\u0440\u044b\u043f-\u0431\u0430\u0440\u044b\u043f
p1598
(lp1599
g3
asV\u0448\u0430\u0431\u0430-\u0448\u0430\u0431\u0430
p1600
(lp1601
g3
asV\u0430\u043d\u044b\u049b-\u0442\u0430\u043d\u044b\u049b
p1602
(lp1603
g3
asV\u0442\u04d9\u043a-\u0442\u04d9\u043a
p1604
(lp1605
g3
asV\u0441\u044b\u043b\u0434\u044b\u0440-\u0441\u044b\u043b\u0434\u044b\u0440
p1606
(lp1607
g3
asV\u0435\u043b-\u0435\u043b\u0434\u0456\u04a3
p1608
(lp1609
g3
asV\u0441\u043e\u043f-\u0441\u043e\u043b\u0493\u044b\u043d
p1610
(lp1611
g3
asV\u0436\u0456\u043f-\u0436\u0438\u0440\u0435\u043d
p1612
(lp1613
g3
asV\u0442\u0430\u0439-\u0442\u0430\u0439
p1614
(lp1615
g3
asV\u0436\u044b\u043f-\u0436\u044b\u043b\u044b
p1616
(lp1617
g3
asV\u0431\u0435\u0441\u0456\u043a-\u043c\u0435\u0441\u0456\u043a
p1618
(lp1619
g3
asV\u0431y\u043a\u0435\u04a3-\u0431y\u043a\u0435\u04a3
p1620
(lp1621
g3
asV\u0430\u043b\u0430\u0493\u0430\u0439-\u0431\u04b1\u043b\u0430\u0493\u0430\u0439
p1622
(lp1623
g3
asV\u0434\u0435\u043c\u0431\u0435-\u0434\u0435\u043c
p1624
(lp1625
g3
asV\u04e9\u043a\u0441\u0456\u043f-\u04e9\u043a\u0441\u0456\u043f
p1626
(lp1627
g3
asV\u044b\u0437\u044b-\u049b\u044b\u0437\u044b
p1628
(lp1629
g3
asVy\u043b\u043f-y\u043b\u043f
p1630
(lp1631
g3
asV\u043f\u0456\u0448\u0435-\u043f\u0456\u0448\u0435
p1632
(lp1633
g3
asV\u0441\u0430\u0431\u0430\u043b\u0430\u049b-\u0441\u0430\u0431\u0430\u043b\u0430\u049b
p1634
(lp1635
g3
asV\u0448y\u0443-\u0448y\u0443\u043b\u0435
p1636
(lp1637
g3
asV\u043a\u0435\u0443-\u043a\u0435\u0443
p1638
(lp1639
g3
asV\u0431\u0430\u043b\u0430-\u043c\u0430\u043b\u0430
p1640
(lp1641
g3
asV\u0441\u043e\u0437\u0430-\u0441\u043e\u0437\u0430
p1642
(lp1643
g3
asV\u0436\u0430\u043b\u0431\u044b\u0440-\u0436\u0430\u043b\u0431\u044b\u0440
p1644
(lp1645
g3
asV\u049b\u0430\u043f\u0430-\u049b\u0430\u0440\u0441\u044b
p1646
(lp1647
g3
asV\u0442y\u043f-\u0442y\u043f
p1648
(lp1649
g3
asV\u04b1\u0439\u043f\u0430-\u0442\u04b1\u0439\u043f\u0430
p1650
(lp1651
g3
asV\u044b\u0440\u0493\u044b\u043f-\u044b\u0440\u0493\u044b\u043f
p1652
(lp1653
g3
asV\u0441\u043e\u0440\u0430\u043f-\u0441\u043e\u0440\u0430\u043f
p1654
(lp1655
g3
asV\u0431\u04b1\u043b\u0434\u044b\u0440-\u0431\u04b1\u043b\u0434\u044b\u0440
p1656
(lp1657
g3
asV\u0431\u043e\u0441\u0442\u0430\u043d-\u0431\u043e\u0441
p1658
(lp1659
g3
asV\u0436\u0430\u043b\u0431\u044b\u0440-\u0436\u04b1\u043b\u0431\u044b\u0440
p1660
(lp1661
g3
asV\u0434\u0430\u043b\u043f-\u0434\u0430\u043b\u043f
p1662
(lp1663
g3
asV\u0435\u043b\u0434\u0435\u043d-\u0435\u043b\u0433\u0435
p1664
(lp1665
g3
asV\u0436\u04b1\u043b\u043c\u0430-\u0436\u04b1\u043b\u043c\u0430
p1666
(lp1667
g3
asV\u043a\u0456\u043c-\u043a\u0456\u043c\u0433\u0435
p1668
(lp1669
g3
asV\u0441\u0438\u0434\u0438\u044b\u043f-c\u0438\u0434\u0438\u044b\u043f
p1670
(lp1671
g3
asV\u0436\u0430\u043b\u043f\u0430\u0439\u044b\u043f-\u0436\u0430\u043b\u043f\u0430\u0439\u044b\u043f
p1672
(lp1673
g3
asV\u0436\u0435\u043f-\u0436\u0435\u043f
p1674
(lp1675
g3
asVy\u043f\u0456\u0440-\u0448y\u043f\u0456\u0440
p1676
(lp1677
g3
asV\u0430\u0439\u0434\u0430\u049b-\u0436\u0430\u0439\u0434\u0430\u049b
p1678
(lp1679
g3
asV\u049b\u043e\u0441\u0430\u049b-\u049b\u043e\u0441\u0430\u049b
p1680
(lp1681
g3
asV\u043ay\u043d\u0431\u0435-\u043ay\u043d\u0433\u0456
p1682
(lp1683
g3
asV\u049b\u0430\u0431\u044b\u0441\u044b\u043f-\u049b\u0430\u0431\u044b\u0441\u044b\u043f
p1684
(lp1685
g3
asV\u049b\u04b1\u043b\u0430\u04a3-\u0431\u04b1\u043b\u0430\u04a3
p1686
(lp1687
g3
asV\u04d9\u043f\u0456-\u0448\u04d9\u043f\u0456
p1688
(lp1689
g3
asV\u04e9\u0440\u043b\u0435\u0439-\u04e9\u0440\u043b\u0435\u0439
p1690
(lp1691
g3
asV\u043c\u043ex-\u043c\u043ex
p1692
(lp1693
g3
asVy\u0437\u0456\u043a-y\u0437\u0456\u043a
p1694
(lp1695
g3
asV\u044b\u043d\u0442\u044b-\u0448\u044b\u043d\u0442\u044b
p1696
(lp1697
g3
asV\u0436\u0430\u043b\u0431\u0430\u04a3-\u0436\u0430\u043b\u0431\u0430\u04a3
p1698
(lp1699
g3
asV\u0441\u0430\u0443\u044b\u0441-\u0441\u0430\u0443\u044b\u0441
p1700
(lp1701
g3
asV\u044b\u04a3\u0493\u044b\u043b-\u0436\u044b\u04a3\u0493\u044b\u043b
p1702
(lp1703
g3
asV\u0434\u044b\u049b-\u0434\u044b\u049b
p1704
(lp1705
g3
asV\u0442\u0435\u0433\u0456\u043d\u043d\u0435\u043d-\u0442\u0435\u0433\u0456\u043d
p1706
(lp1707
g3
asV\u0436\u0430\u043d\u044b\u043f-\u0436\u0430\u043d\u044b\u043f
p1708
(lp1709
g3
asV\u0438\u0440\u0435\u043a-\u0438\u0440\u0435\u043a
p1710
(lp1711
g3
asV\u0441\u0435\u043f-\u0441\u0435\u043c\u0456\u0437
p1712
(lp1713
g3
asV\u049b\u043e\u043c\u0448\u0430-\u049b\u043e\u043c\u0448\u0430
p1714
(lp1715
g3
asV\u0441y\u043c\u0431\u0456\u043b-\u0441y\u043c\u0431\u0456\u043b
p1716
(lp1717
g3
asV\u049b\u044b\u043b\u0442\u0438\u0493\u0430\u043d-\u049b\u044b\u043b\u0442\u0438\u0493\u0430\u043d
p1718
(lp1719
g3
asV\u043a\u0435\u043f-\u043a\u0435\u0431\u0443
p1720
(lp1721
g3
asV\u0442\u04e9\u0442\u0435-\u0442\u04e9\u0442\u0435
p1722
(lp1723
g3
asV\u0441\u0435\u043a\u0435\u043a-\u0441\u0435\u043a\u0435\u043a
p1724
(lp1725
g3
asV\u0436\u044b\u043b\u044b\u0441\u0442\u0430\u0439-\u0436\u044b\u043b\u044b\u0441\u0442\u0430\u0439
p1726
(lp1727
g3
asV\u0442\u0435\u043a\u0442\u0435\u043d-\u0442\u0435\u043a\u043a\u0435
p1728
(lp1729
g3
asV\u04d9\u043f-\u04d9\u0441\u0435\u043c
p1730
(lp1731
g3
asV\u043d\u0430\u0443\u0430-\u043d\u0430\u0443\u0430
p1732
(lp1733
g3
asV\u0430\u0441\u0443-\u0430\u0441\u0443
p1734
(lp1735
g3
asV\u043b\u0430\u0443-\u043b\u0430\u0443
p1736
(lp1737
g3
asV\u049b\u044b\u04a3\u049b\u044b\u043b-\u0441\u044b\u04a3\u049b\u044b\u043b
p1738
(lp1739
g3
asV\u043ay\u04a3\u043a-\u043ay\u04a3\u043a
p1740
(lp1741
g3
asV\u04e9\u0442\u0435-\u043c\u04e9\u0442\u0435
p1742
(lp1743
g3
asV\u049b\u043e\u043b\u0434\u0430\u043d-\u049b\u043e\u043b\u0493\u0430
p1744
(lp1745
g3
asVy\u0448-y\u0448\u0442\u0435\u043d
p1746
(lp1747
g3
asV\u049b\u043e\u044f-\u049b\u043e\u044f
p1748
(lp1749
g3
asV\u0436\u0430\u0493\u0430\u043b-\u0436\u0430\u0493\u0430\u043b
p1750
(lp1751
g3
asV\u0448\u044b\u043b\u049b-\u0448\u044b\u043b\u049b
p1752
(lp1753
g3
asV\u043e\u043f\u0430\u0440-\u0442\u043e\u043f\u0430\u0440
p1754
(lp1755
g3
asV\u0431\u0430\u0443-\u0431\u0430\u0443
p1756
(lp1757
g3
asVy\u043f-y\u043b\u043a\u0435\u043d
p1758
(lp1759
g3
asV\u0431\u044b\u043b\u049b-\u0431\u044b\u043b\u049b
p1760
(lp1761
g3
asV\u0430\u04a3\u044b\u0440\u0430\u0439\u044b\u043f-\u0441\u0430\u04a3\u044b\u0440\u0430\u0439\u044b\u043f
p1762
(lp1763
g3
asV\u0431\u0456\u0440\u0456\u043d-\u0431\u0456\u0440\u0456
p1764
(lp1765
g3
asV\u043e\u043d-\u043e\u043d\u0434\u0430\u043f
p1766
(lp1767
g3
asV\u0431\u0430\u0441\u043f\u0430-\u0431\u0430\u0441
p1768
(lp1769
g3
asV\u0434\u04d9\u0443-\u0434\u04d9\u0443
p1770
(lp1771
g3
asV\u043c\u04d9\u04a3\u0433\u0456-\u043c\u04d9\u04a3\u0433\u0456
p1772
(lp1773
g3
asV\u0442y\u0440\u043b\u0456-\u0442y\u0440\u043b\u0456
p1774
(lp1775
g3
asV\u0431\u0456\u0440-\u0431\u0456\u0440\u0434\u0435\u043d
p1776
(lp1777
g3
asV\u0442\u04b1\u0441-\u0442\u04b1\u0441
p1778
(lp1779
g3
asV\u0442\u0430\u0440\u043f\u0430\u04a3-\u0442\u04b1\u0440\u043f\u0430\u04a3
p1780
(lp1781
g3
asV\u049b\u043e\u0439\u0442-\u049b\u043e\u0439\u0442
p1782
(lp1783
g3
asV\u0430\u043b\u0436\u0430-\u0430\u043b\u0436\u0430
p1784
(lp1785
g3
asV\u0441\u0430\u043b\u043f\u0430\u04a3-\u0441\u0430\u043b\u043f\u0430\u04a3
p1786
(lp1787
g3
asV\u049b\u0438\u0441\u0430\u04a3-\u049b\u0438\u0441\u0430\u04a3
p1788
(lp1789
g3
asVy\u0440\u0435\u0439-y\u0440\u0435\u0439\u0434\u0435\u043d
p1790
(lp1791
g3
asV\u04e9\u043a\u0442\u0435\u043c-\u04e9\u043a\u0442\u0435\u043c
p1792
(lp1793
g3
asV\u0437\u044b\u0440-\u0437\u044b\u0440
p1794
(lp1795
g3
asV\u0441\u043e\u0442-\u043c\u043e\u0442
p1796
(lp1797
g3
asV\u0436\u0438\u0456-\u0436\u0438\u0456
p1798
(lp1799
g3
asV\u043a\u0456\u0440-\u043a\u0456\u0440
p1800
(lp1801
g3
asV\u0430\u0441\u044b\u0493\u0430-\u0430\u0441\u044b\u0493\u0430
p1802
(lp1803
g3
asV\u0436y\u0439\u043a\u0435-\u0436y\u0439\u043a\u0435\u0441\u0456
p1804
(lp1805
g3
asV\u0435\u043c-\u0434\u0435\u043c\u0434\u0435
p1806
(lp1807
g3
asV\u0436\u0430\u043b\u043c\u0430\u04a3-\u0436\u0430\u043b\u043c\u0430\u04a3
p1808
(lp1809
g3
asV\u0445\u0430-\u0445\u0430
p1810
(lp1811
g3
asV\u049b\u043e\u0440\u049b-\u049b\u043e\u0440\u049b
p1812
(lp1813
g3
asV\u04d9\u0440\u043f\u0456\u043b-\u0442\u04d9\u0440\u043f\u0456\u043b
p1814
(lp1815
g3
asV\u0442\u044b\u0440\u043c\u044b\u0441\u0430-\u0442\u044b\u0440\u043c\u044b\u0441\u0430
p1816
(lp1817
g3
asV\u0434\u0435\u043b\u0435\u04a3-\u0434\u0435\u043b\u0435\u04a3
p1818
(lp1819
g3
asV\u043a\u0456\u0440\u0436\u0456\u04a3-\u043a\u0456\u0440\u0436\u0456\u04a3
p1820
(lp1821
g3
asV\u0436\u044b\u0440\u0442\u044b\u049b-\u0436\u044b\u0440\u0442\u044b\u049b
p1822
(lp1823
g3
asV\u049b\u044b\u0440\u0448-\u049b\u044b\u0440\u0448
p1824
(lp1825
g3
asV\u0441y\u043f-\u0441y\u0439\u0440\u0456\u043a
p1826
(lp1827
g3
asV\u0441\u0430\u043c\u0431\u044b\u0440-\u0441\u0430\u043c\u0431\u044b\u0440
p1828
(lp1829
g3
asV\u0436y\u0439\u043a\u0435-\u0436y\u0439\u043a\u0435
p1830
(lp1831
g3
asV\u0456\u0440\u043a\u0435\u0441-\u0442\u0456\u0440\u043a\u0435\u0441
p1832
(lp1833
g3
asV\u043e\u0442\u044b\u0440\u0430-\u043e\u0442\u044b\u0440\u0430
p1834
(lp1835
g3
asV\u0448\u0430\u043d\u0448\u044b\u043f-\u0448\u0430\u043d\u0448\u044b\u043f
p1836
(lp1837
g3
asV\u043ay\u0439\u0435\u043b\u0435\u0448-\u043ay\u0439\u0435\u043b\u0435\u0448
p1838
(lp1839
g3
asV\u0430\u043f\u0430\u049b-\u0448\u0430\u043f\u0430\u049b
p1840
(lp1841
g3
asV\u0434\u0443\u0434\u0430\u0440-\u0434\u0443\u0434\u0430\u0440
p1842
(lp1843
g3
asV\u0436y\u043b\u0433\u0435-\u0436y\u043b\u0433\u0435
p1844
(lp1845
g3
asV\u043b\u0430\u0493\u044b\u043f-\u043b\u0430\u0493\u044b\u043f
p1846
(lp1847
g3
asV\u043b\u044b\u049b-\u043b\u044b\u049b
p1848
(lp1849
g3
asV\u04d9\u043f-\u04d9\u043b\u0436\u0443\u0430\u0437
p1850
(lp1851
g3
asV\u0434\u0430\u043c\u044b\u043b-\u0434\u0430\u043c\u044b\u043b
p1852
(lp1853
g3
asV\u0436\u044b\u0440\u0442\u044b\u043f-\u0436\u044b\u0440\u0442\u044b\u043f
p1854
(lp1855
g3
asV\u0442\u0456\u043b\u043a\u0435\u043c-\u0442\u0456\u043b\u043a\u0435\u043c
p1856
(lp1857
g3
asV\u0436\u0430\u043f-\u0436\u0430\u0434\u0430\u0493\u0430\u0439
p1858
(lp1859
g3
asV\u043a\u04e9\u0431\u0456\u043d\u0435-\u043a\u04e9\u043f
p1860
(lp1861
g3
asV\u0436\u044b\u043b\u0434\u0430\u043c-\u0436\u044b\u043b\u0434\u0430\u043c
p1862
(lp1863
g3
asV\u04b1\u0440\u0442\u0442\u0430\u043f-\u04b1\u0440\u0442\u0442\u0430\u043f
p1864
(lp1865
g3
asV\u049b\u04b1\u049b-\u0441\u04b1\u049b
p1866
(lp1867
g3
asV\u0436\u044b\u043b\u043c\u044b\u04a3-\u0436\u044b\u043b\u043c\u044b\u04a3
p1868
(lp1869
g3
asV\u0431y\u0433\u0456\u043b\u0456\u043f-\u0431y\u0433\u0456\u043b\u0456\u043f
p1870
(lp1871
g3
asV\u0430\u043b\u0430\u04a3-\u0430\u043b\u0430\u04a3
p1872
(lp1873
g3
asV\u043c\u0430\u04a3-\u043c\u0430\u04a3
p1874
(lp1875
g3
asV\u0431\u04d9\u0440-\u0431\u04d9\u0440\u0456\u0441\u0456
p1876
(lp1877
g3
asV\u0436\u044b\u0440\u0442\u0430-\u043c\u044b\u0440\u0442\u0430
p1878
(lp1879
g3
asV\u0436\u0430\u043b\u0431\u0430\u04a3-\u0436\u04b1\u043b\u0431\u0430\u04a3
p1880
(lp1881
g3
asV\u043ay\u0440\u0441-\u043ay\u0440\u0441
p1882
(lp1883
g3
asV\u049b\u0430\u049b-\u0441\u043e\u049b
p1884
(lp1885
g3
asV\u0448\u0435\u0442-\u0448\u0435\u0442\u0456
p1886
(lp1887
g3
asV\u0431\u0430\u049b\u0430\u0440\u043b\u044b-\u0448\u0430\u049b\u0430\u0440\u043b\u044b
p1888
(lp1889
g3
asV\u0448\u043e\u049b\u044b\u0440\u0430\u049b-\u0448\u043e\u049b\u044b\u0440\u0430\u049b
p1890
(lp1891
g3
asV\u04d9\u0437\u0435\u0440-\u04d9\u0437\u0435\u0440
p1892
(lp1893
g3
asV\u0436\u0430\u0439-\u0436\u0430\u0439
p1894
(lp1895
g3
asV\u0435\u04a3\u043a\u0443-\u0435\u04a3\u043a\u0443
p1896
(lp1897
g3
asV\u0436\u0443\u0430\u043d-\u0436\u0443\u0430\u043d
p1898
(lp1899
g3
asV\u0441\u0430\u043c\u0493\u0430\u043f-\u0441\u0430\u043c\u0493\u0430\u043f
p1900
(lp1901
g3
asV\u049b\u0430\u0439-\u049b\u0430\u0439\u0441\u044b\u0441\u044b
p1902
(lp1903
g3
asV\u0448\u043e\u0439\u043d\u0430\u04a3-\u0448\u043e\u0439\u043d\u0430\u04a3
p1904
(lp1905
g3
asV\u044b\u0437\u044b\u04a3-\u044b\u0437\u044b\u04a3
p1906
(lp1907
g3
asV\u0435\u0440\u0456\u043d-\u043c\u0435\u0440\u0456\u043d
p1908
(lp1909
g3
asV\u0430\u0440\u043f-\u0430\u0440\u043f
p1910
(lp1911
g3
asV\u049b\u0430\u0440\u044b\u043c-\u049b\u0430\u0440\u044b\u043c
p1912
(lp1913
g3
asV\u049b\u04b1\u043d\u0436\u044b\u04a3-\u049b\u04b1\u043d\u0436\u044b\u04a3
p1914
(lp1915
g3
asV\u0442\u043e\u0437\u044b\u043c-\u0442\u043e\u0437\u044b\u043c
p1916
(lp1917
g3
asVy\u0439\u0434\u0456-y\u0439\u0456\u043d\u0435
p1918
(lp1919
g3
asV\u0430\u043b\u0434\u044b\u0440\u0430\u043f-\u0441\u0430\u043b\u0434\u044b\u0440\u0430\u043f
p1920
(lp1921
g3
asV\u044b\u043c\u043f\u0430\u0439-\u0436\u044b\u043c\u043f\u0430\u0439
p1922
(lp1923
g3
asV\u0448\u044b\u04a3-\u0448\u044b\u04a3
p1924
(lp1925
g3
asV\u0436\u044b\u043f\u044b\u049b-\u0436\u044b\u043f\u044b\u049b
p1926
(lp1927
g3
asV\u0430\u043f\u043f\u0430\u049b-\u0430\u043f\u043f\u0430\u049b
p1928
(lp1929
g3
asV\u04d9\u0440\u0435-\u0442\u04d9\u0440\u0435
p1930
(lp1931
g3
asV\u043e\u0440\u049b\u0430\u0448-\u043e\u0440\u049b\u0430\u0448
p1932
(lp1933
g3
asV\u0442\u0443-\u0442\u0443
p1934
(lp1935
g3
asV\u0448\u04b1\u043f-\u0448\u04b1\u04a3\u049b\u044b\u0440
p1936
(lp1937
g3
asV\u0442\u0430\u043c\u044b\u0437\u0430-\u043c\u0430\u043c\u044b\u0437\u0430
p1938
(lp1939
g3
asV\u043a\u0435\u0439\u0456\u043d-\u043a\u0435\u0439\u0456\u043d
p1940
(lp1941
g3
asV\u0437\u0430\u0442-\u043c\u0430\u0442
p1942
(lp1943
g3
asV\u0431\u04b1\u043b\u0493\u0430\u043f-\u0431\u04b1\u043b\u0493\u0430\u043f
p1944
(lp1945
g3
asV\u0441\u0430\u049b\u044b\u0440-\u0441\u0430\u049b\u044b\u0440
p1946
(lp1947
g3
asV\u0448\u043e\u0444\u0435\u0440-\u043c\u043e\u0444\u0435\u0440
p1948
(lp1949
g3
asV\u049b\u044b\u043b\u0442\u044b\u04a3-\u0441\u044b\u043b\u0442\u044b\u04a3
p1950
(lp1951
g3
asV\u0448\u0435\u0433\u0456\u043d\u0435-\u0448\u0435\u0433\u0456\u043d\u0435
p1952
(lp1953
g3
asV\u043a\u0456\u043c-\u043a\u0456\u043c\u043d\u0456\u04a3
p1954
(lp1955
g3
asV\u049b\u0430\u043d\u0430\u0440-\u049b\u0430\u043d\u0430\u0440
p1956
(lp1957
g3
asV\u043ay\u043b\u0442\u0435-\u043ay\u043b\u0442\u0435
p1958
(lp1959
g3
asV\u04e9\u0440\u0435-\u04e9\u0440\u0435
p1960
(lp1961
g3
asV\u044b\u0493\u044b\u043d-\u0448\u044b\u0493\u044b\u043d\u0441\u044b\u0437
p1962
(lp1963
g3
asV\u0431\u0430\u043f-\u0431\u0430\u0439\u0441\u0430\u043b\u0434\u044b
p1964
(lp1965
g3
asV\u0434\u0435\u043b\u0431\u0435\u04a3-\u0434\u0435\u043b\u0431\u0435\u04a3
p1966
(lp1967
g3
asV\u0441\u0430\u0443\u0441\u0430\u049b-\u0441\u0430\u0443\u0441\u0430\u049b
p1968
(lp1969
g3
asV\u0456\u0440\u043c\u0435\u043a-\u0442\u0456\u0440\u043c\u0435\u043a
p1970
(lp1971
g3
asV\u049b\u044b\u0440\u043f\u044b\u049b-\u049b\u044b\u0440\u043f\u044b\u049b
p1972
(lp1973
g3
asV\u0436\u04b1\u043b\u049b\u0430-\u0436\u04b1\u043b\u049b\u0430
p1974
(lp1975
g3
asV\u0431\u0438\u0456\u043a-\u0431\u0438\u0456\u043a
p1976
(lp1977
g3
asV\u049b\u043e\u043b\u0430\u0442-\u049b\u043e\u043b\u0430\u0442
p1978
(lp1979
g3
asV\u04d9\u043b\u0435\u043a\u0435\u0439-\u0448y\u043b\u0435\u043a\u0435\u0439
p1980
(lp1981
g3
asV\u049b\u04b1\u0440\u044b\u043b\u0434\u0430\u043f-\u0448\u04b1\u0440\u044b\u043b\u0434\u0430\u043f
p1982
(lp1983
g3
asV\u0441\u0430\u049b-\u0441\u0430\u049b
p1984
(lp1985
g3
asV\u0430\u0442\u0430\u043b-\u0441\u0430\u0442\u0430\u043b
p1986
(lp1987
g3
asV\u04e9\u0437\u0456\u043c\u043c\u0435\u043d-\u04e9\u0437\u0456\u043c
p1988
(lp1989
g3
asV\u049b\u0430\u0437\u0430\u043d\u0434\u0430\u0439-\u049b\u0430\u0437\u0430\u043d\u0434\u0430\u0439
p1990
(lp1991
g3
asV\u04b1\u043f-\u04b1\u0441\u0430\u049b
p1992
(lp1993
g3
asV\u0430\u0434\u044b\u0440\u0430\u0439\u044b\u043f-\u0430\u0434\u044b\u0440\u0430\u0439\u044b\u043f
p1994
(lp1995
g3
asV\u0430\u0439-\u0430\u0439
p1996
(lp1997
g3
asV\u0431\u044b\u043f-\u0431\u0438\u044f\u0437\u044b
p1998
(lp1999
g3
asV\u0442\u044b\u0441\u044b\u0440-\u0442\u044b\u0441\u044b\u0440
p2000
(lp2001
g3
asV\u0431\u04d9\u043b\u0435-\u0431\u0430\u0442\u0442\u0430\u043b
p2002
(lp2003
g3
asV\u0431\u0430\u043b\u0430\u0434\u0430\u0439-\u0431\u0430\u043b\u0430\u0434\u0430\u0439
p2004
(lp2005
g3
asV\u0434\u0456\u04a3\u0433\u0456\u0440-\u0434\u0456\u04a3\u0433\u0456\u0440
p2006
(lp2007
g3
asV\u0436\u0430\u04a3\u0493\u044b\u0437-\u0436\u0430\u04a3\u0493\u044b\u0437
p2008
(lp2009
g3
asV\u0431\u04b1\u0439\u0440\u0430-\u0431\u04b1\u0439\u0440\u0430
p2010
(lp2011
g3
asV\u049b\u0430\u043b\u0434\u044b\u0440-\u049b\u04b1\u043b\u0434\u044b\u0440
p2012
(lp2013
g3
asV\u0431\u0456\u0440\u0434\u0435\u043d-\u0431\u0456\u0440
p2014
(lp2015
g3
asV\u049b\u0430\u0443\u049b\u0438\u0493\u0430\u043d-\u049b\u0430\u0443\u049b\u0438\u0493\u0430\u043d
p2016
(lp2017
g3
asV\u043a\u04e9\u0448-\u043a\u04e9\u0448
p2018
(lp2019
g3
asV\u0456\u043b\u0435-\u043c\u0456\u043b\u0435
p2020
(lp2021
g3
asV\u0430\u0431\u044b\u043b\u044b\u043f-\u0441\u0430\u0431\u044b\u043b\u044b\u043f
p2022
(lp2023
g3
asV\u0448\u044b\u049b-\u0448\u044b\u049b
p2024
(lp2025
g3
asV\u043c\u043e\u043f-\u043c\u043e\u043c\u044b\u043d
p2026
(lp2027
g3
asV\u0436\u0430\u043f\u044b\u0440\u0430\u049b-\u0436\u0430\u043f\u044b\u0440\u0430\u049b
p2028
(lp2029
g3
asV\u049b\u043e\u0448-\u049b\u043e\u0448
p2030
(lp2031
g3
asV\u0442\u044b\u0440\u0442\u044b\u04a3-\u0442\u044b\u0440\u0442\u044b\u04a3
p2032
(lp2033
g3
asV\u0430\u043b\u0430-\u0431\u04b1\u043b\u0430\u049b
p2034
(lp2035
g3
asV\u0442\u04b1\u0441-\u0442\u04b1\u0441\u049b\u0430
p2036
(lp2037
g3
asV\u0436\u04b1\u043b\u044b\u043f-\u0436\u04b1\u043b\u044b\u043f
p2038
(lp2039
g3
asV\u0442y\u0440\u043f\u0456-\u0442y\u0440\u043f\u0456
p2040
(lp2041
g3
asV\u0438\u0440\u0435\u04a3-\u0438\u0440\u0435\u04a3
p2042
(lp2043
g3
asV\u04b1\u043b\u044b\u043f-\u04b1\u043b\u044b\u043f
p2044
(lp2045
g3
asV\u0448\u0443-\u0448\u0443\u043b\u0435\u043f
p2046
(lp2047
g3
asV\u0441\u0430\u043c\u0430\u043b\u0430\u0434\u0430\u0439-\u0441\u0430\u043c\u0430\u043b\u0430\u0434\u0430\u0439
p2048
(lp2049
g3
asV\u0442y\u0443-\u0442y\u0443
p2050
(lp2051
g3
asV\u0431\u0430\u0436\u0430\u04a3-\u0431\u04b1\u0436\u0430\u04a3
p2052
(lp2053
g3
asV\u044b\u0440\u0436\u044b\u04a3-\u044b\u0440\u0436\u044b\u04a3
p2054
(lp2055
g3
asV\u0448\u043e\u043f-\u0448\u043e\u043b\u0430\u049b
p2056
(lp2057
g3
asV\u04d9\u0436\u0456\u043c-\u04d9\u0436\u0456\u043c
p2058
(lp2059
g3
asV\u04d9\u043f-\u04d9\u0434\u0435\u043c\u0456
p2060
(lp2061
g3
asV\u0431\u043e\u043f-\u0431\u043e\u0441
p2062
(lp2063
g3
asV\u0436\u0430\u0439\u043b\u0430\u043f-\u0436\u0430\u0439\u043b\u0430\u043f
p2064
(lp2065
g3
asV\u0437\u0435\u043c\u0431\u0456\u043b-\u0437\u0435\u043c\u0431\u0456\u043b
p2066
(lp2067
g3
asV\u0430\u0437-\u0430\u0437
p2068
(lp2069
g3
asV\u0434y\u0431\u0456\u0440-\u0434y\u0431\u0456\u0440
p2070
(lp2071
g3
asV\u0440\u0430\u0439-\u0442\u0440\u0430\u0439
p2072
(lp2073
g3
asV\u0430\u043b\u0443\u0430\u043d-\u0430\u043b\u0443\u0430\u043d
p2074
(lp2075
g3
asV\u049b\u0430\u0440\u043f\u044b\u043f-\u049b\u0430\u0440\u043f\u044b\u043f
p2076
(lp2077
g3
asV\u0430\u0445\u0430-\u0445\u0430\u043b\u0430
p2078
(lp2079
g3
asV\u049b\u0443\u044b\u0440-\u049b\u0443\u044b\u0440
p2080
(lp2081
g3
asV\u0436\u0435\u0440-\u0436\u0435\u0440\u0434\u0435
p2082
(lp2083
g3
asV\u043c\u044b\u0436-\u043c\u044b\u0436
p2084
(lp2085
g3
asV\u0431\u0443\u044b\u043d-\u0431\u0443\u044b\u043d
p2086
(lp2087
g3
asV\u0493\u0430\u0441\u044b\u0440-\u0493\u0430\u0441\u044b\u0440
p2088
(lp2089
g3
asV\u043a\u0456\u043b\u0442-\u043a\u0456\u043b\u0442
p2090
(lp2091
g3
asV\u043e\u043b\u049b\u044b-\u0442\u043e\u043b\u049b\u044b
p2092
(lp2093
g3
asV\u0434\u0430\u0431\u044b\u0440-\u0434\u0430\u0431\u044b\u0440
p2094
(lp2095
g3
asV\u0441\u044b\u049b-\u0441\u044b\u049b
p2096
(lp2097
g3
asV\u0430\u043f-\u0430\u0439\u049b\u044b\u043d
p2098
(lp2099
g3
asV\u049b\u044b\u0437\u0430-\u049b\u044b\u0437\u0430
p2100
(lp2101
g3
asV\u0442\u04b1\u043b\u044b\u043c\u0448\u0430\u049b-\u0442\u04b1\u043b\u044b\u043c\u0448\u0430\u049b
p2102
(lp2103
g3
asV\u0448\u04d9\u0443-\u0448\u04d9\u0443
p2104
(lp2105
g3
asV\u0441\u0435\u043d\u0435\u0440-\u0441\u0435\u043d\u0431\u0435\u0441
p2106
(lp2107
g3
asV\u0442\u0435\u04a3\u0431\u0456\u043b-\u0442\u0435\u04a3\u0431\u0456\u043b
p2108
(lp2109
g3
asV\u0442\u044b\u0440\u0431\u0430\u04a3-\u0442\u044b\u0440\u0431\u0430\u04a3
p2110
(lp2111
g3
asV\u0434y\u043f-\u0442y\u0437\u0443
p2112
(lp2113
g3
asV\u0431\u0435\u0437\u0435\u043f-\u0431\u0435\u0437\u0435\u043f
p2114
(lp2115
g3
asV\u0442\u0456\u043b\u0435\u0439-\u0442\u0456\u043b\u0435\u0439
p2116
(lp2117
g3
asV\u0430\u0439\u0442\u044b\u043b\u044b\u043f-\u0430\u0439\u0442\u044b\u043b\u044b\u043f
p2118
(lp2119
g3
asV\u049b\u044b\u0440\u049b-\u049b\u044b\u0440\u049b
p2120
(lp2121
g3
ag3
asV\u0431\u043e\u043f-\u0431\u043e\u0437
p2122
(lp2123
g3
asV\u043ay\u0440-\u043ay\u0440
p2124
(lp2125
g3
asV\u0441\u043e\u0441\u0442\u0438\u044b\u043f-\u0441\u043e\u0441\u0442\u0438\u044b\u043f
p2126
(lp2127
g3
asV\u0442\u0435\u0437\u0431\u0435-\u0442\u0435\u0437
p2128
(lp2129
g3
asV\u049b\u0430\u0434\u0430\u04a3-\u049b\u04b1\u0434\u0430\u04a3
p2130
(lp2131
g3
asV\u0433\u04e9\u0439-\u0433\u04e9\u0439\u043b\u0435\u043f
p2132
(lp2133
g3
asV\u0431\u0430\u043d\u0434\u044b-\u043c\u0430\u043d\u0434\u044b
p2134
(lp2135
g3
asV\u0430\u04a3-\u0442\u0430\u04a3
p2136
(lp2137
g3
asV\u043ay\u043d\u043d\u0435\u043d-\u043ay\u043d\u0433\u0435
p2138
(lp2139
g3
asV\u049b\u043e\u043b\u044b-\u049b\u043e\u043b\u044b\u043d\u0430
p2140
(lp2141
g3
asV\u0448\u0430\u043d\u0436\u0430\u0443-\u0448\u0430\u043d\u0436\u0430\u0443
p2142
(lp2143
g3
asV\u0441\u04b1\u043f-\u0441\u0443\u044b\u049b
p2144
(lp2145
g3
asV\u0435\u043b\u0431\u0435\u04a3-\u0441\u0435\u043b\u0431\u0435\u04a3
p2146
(lp2147
g3
asVy\u0439\u0456\u0440-y\u0439\u0456\u0440
p2148
(lp2149
g3
asV\u0430\u043b\u0430\u04a3\u0493\u044b\u0442-\u0430\u043b\u0430\u04a3\u0493\u044b\u0442
p2150
(lp2151
g3
asV\u0431\u043e\u0440\u043f-\u0431\u043e\u0440\u043f
p2152
(lp2153
g3
asV\u0430\u0439\u044b\u0440-\u0430\u0439\u044b\u0440
p2154
(lp2155
g3
asV\u043ay\u04a3\u043a\u0456\u043b-\u043ay\u04a3\u043a\u0456\u043b
p2156
(lp2157
g3
asV\u0441\u043e\u0493\u0430-\u043c\u043e\u0493\u0430
p2158
(lp2159
g3
asV\u0436\u0430\u0443\u0442\u0430\u04a3-\u0436\u0430\u0443\u0442\u0430\u04a3
p2160
(lp2161
g3
asV\u0433y\u043c\u043f-\u0433y\u043c\u043f
p2162
(lp2163
g3
asV\u0436\u0430\u0439\u0434\u0430\u043d-\u0436\u0430\u0439
p2164
(lp2165
g3
asV\u0430\u0445\u0430-\u0445\u0430\u0443
p2166
(lp2167
g3
asV\u0442\u0435\u04a3-\u0442\u0435\u04a3
p2168
(lp2169
g3
asV\u0442\u04b1\u0442\u044b\u0493\u0430-\u0442\u04b1\u0442\u044b\u0493\u0430
p2170
(lp2171
g3
asV\u0436y\u0433\u0456\u0440\u0435-\u0436y\u0433\u0456\u0440\u0435
p2172
(lp2173
g3
asV\u0448\u0430\u04a3\u049b-\u0448\u04b1\u04a3\u049b
p2174
(lp2175
g3
asV\u0430\u04a3\u0434\u0430\u0439-\u0430\u04a3\u0434\u0430\u0439
p2176
(lp2177
g3
asV\u0431\u04d9\u0443-\u0431\u04d9\u0443\u043b\u0435
p2178
(lp2179
g3
asV\u0436\u0430\u0440\u0430\u0442\u0430-\u0436\u0430\u0440\u0430\u0442\u0430
p2180
(lp2181
g3
asV\u0436\u0430\u043d\u0448\u044b\u043f-\u0436\u0430\u043d\u0448\u044b\u043f
p2182
(lp2183
g3
asV\u04af\u0440\u043f\u0435-\u0442\u04af\u0440\u043f\u0435
p2184
(lp2185
g3
asV\u0448\u0430\u043b\u043f-\u0448\u0430\u043b\u043f
p2186
(lp2187
g3
asV\u043e\u043f\u0430\u043b\u0430\u049b-\u0442\u043e\u043f\u0430\u043b\u0430\u049b
p2188
(lp2189
g3
asV\u043e\u0441\u044b\u043d\u0434\u0430\u0439-\u043e\u0441\u044b\u043d\u0434\u0430\u0439
p2190
(lp2191
g3
asV\u043e\u0439-\u043e\u0439
p2192
(lp2193
g3
asV\u0430\u044f\u0434\u0430\u0439-\u0430\u044f\u0434\u0430\u0439
p2194
(lp2195
g3
asV\u043c\u0430\u043b\u0436\u0430\u04a3-\u043c\u0430\u043b\u0436\u0430\u04a3
p2196
(lp2197
g3
asV\u0431\u043e\u049b\u0442\u044b\u049b-\u0441\u043e\u049b\u0442\u044b\u049b
p2198
(lp2199
g3
asV\u0430\u0442\u0430-\u0430\u0442\u0430
p2200
(lp2201
g3
asV\u0430\u0439\u0442\u044b\u043f-\u0430\u0439\u0442\u044b\u043f
p2202
(lp2203
g3
asV\u0430\u049b\u044b\u0440\u044b\u043d-\u0430\u049b\u044b\u0440\u044b\u043d
p2204
(lp2205
g3
asV\u0431\u0430\u0440\u0430\u0440-\u0431\u0430\u0440\u043c\u0430\u0441
p2206
(lp2207
g3
asV\u0430\u0439\u0493\u0430\u0439\u043b\u0430\u043f-\u04b1\u0439\u0493\u0430\u0439\u043b\u0430\u043f
p2208
(lp2209
g3
asV\u0436\u044b\u0431\u044b\u0440-\u0436\u044b\u0431\u044b\u0440
p2210
(lp2211
g3
asV\u04d9\u0448\u0435\u0442-\u043f\u04d9\u0448\u0435\u0442
p2212
(lp2213
g3
asV\u0435\u0441\u0442\u0456\u043f-\u0435\u0441\u0442\u0456\u043f
p2214
(lp2215
g3
asV\u0448\u0430\u0440\u0442-\u0448\u0430\u0440\u0442
p2216
(lp2217
g3
asV\u0434\u04d9\u043c\u0456\u043b-\u0434\u04d9\u043c\u0456\u043b
p2218
(lp2219
g3
asV\u049b\u043e\u0439-\u049b\u043e\u0439\u043b\u0430\u0443
p2220
(lp2221
g3
asV\u049b\u0430\u0440\u0441-\u049b\u0430\u0440\u0441
p2222
(lp2223
g3
asVy\u0440\u0433\u0456\u043d-\u0441y\u0440\u0433\u0456\u043d
p2224
(lp2225
g3
asV\u0430\u0441\u0442\u0430\u0443-\u0430\u0441\u0442\u0430\u0443
p2226
(lp2227
g3
asV\u0434\u0430\u043b\u0430-\u0434\u0430\u043b\u0430
p2228
(lp2229
g3
asV\u043c\u044b\u04a3-\u043c\u044b\u04a3\u0434\u0430\u043f
p2230
(lp2231
g3
asV\u0448\u0430\u043f\u043f\u0430-\u0448\u04b1\u043f
p2232
(lp2233
g3
asV\u049b\u0430\u0437\u0430-\u049b\u0430\u0437\u0430
p2234
(lp2235
g3
asV\u0442\u0430\u043f-\u0442\u0430\u0440
p2236
(lp2237
g3
asV\u0435\u0440\u0431\u0435\u04a3-\u0435\u0440\u0431\u0435\u04a3
p2238
(lp2239
g3
asV\u0431\u0430\u0440\u0442-\u0431\u0430\u0440\u0442
p2240
(lp2241
g3
asV\u0441\u0430\u0442\u0430\u043b-\u0441\u0430\u0442\u0430\u043b
p2242
(lp2243
g3
asV\u0431\u0456\u043f-\u0431\u0438\u044f\u0437\u044b
p2244
(lp2245
g3
asV\u0436\u0430\u043c\u0430\u043d-\u0436\u04b1\u043c\u0430\u043d
p2246
(lp2247
g3
asV\u0442\u0435\u043f\u0435\u04a3-\u0442\u0435\u043f\u0435\u04a3
p2248
(lp2249
g3
asV\u0434\u0435\u0441\u0442\u0435-\u0434\u0435\u0441\u0442\u0435
p2250
(lp2251
g3
asV\u043e\u0439\u043c\u044b\u0448-\u043e\u0439\u043c\u044b\u0448
p2252
(lp2253
g3
asV\u043ay\u043d\u0434\u0435-\u043ay\u043d\u0434\u0435
p2254
(lp2255
g3
asV\u0430\u0431\u0434\u044b\u0440-\u0441\u0430\u0431\u0434\u044b\u0440
p2256
(lp2257
g3
asV\u0435\u043b-\u0435\u043b\u0434\u0435
p2258
(lp2259
g3
asV\u0435\u043d\u0442\u0456\u0433\u0435-\u0435\u043d\u0442\u0456\u0433\u0435
p2260
(lp2261
g3
asV\u0431\u0435\u0437-\u0431\u0435\u0437
p2262
(lp2263
g3
asV\u0431\u043e\u0440\u0448\u0430-\u0431\u043e\u0440\u0448\u0430
p2264
(lp2265
g3
asV\u0431\u0430\u0434\u044b\u0440\u0430\u0439\u044b\u043f-\u0431\u0430\u0434\u044b\u0440\u0430\u0439\u044b\u043f
p2266
(lp2267
g3
asV\u049b\u0430\u043f\u044b\u043b-\u049b\u04b1\u043f\u044b\u043b
p2268
(lp2269
g3
asV\u0442\u04d9\u0439-\u0442\u04d9\u0439
p2270
(lp2271
g3
asV\u0431\u04d9\u043b\u0434\u0443-\u0448\u04d9\u043b\u0434\u0443
p2272
(lp2273
g3
asV\u0436\u0430\u043b\u0493\u044b\u0437\u0434\u0430\u043d-\u0436\u0430\u043b\u0493\u044b\u0437
p2274
(lp2275
g3
asV\u043c\u0430\u043f-\u043c\u0430\u0439\u0434\u0430
p2276
(lp2277
g3
asV\u0436\u044b\u049b-\u0436\u044b\u049b
p2278
(lp2279
g3
asVy\u04a3\u0456\u043b\u0435-y\u04a3\u0456\u043b\u0435
p2280
(lp2281
g3
asV\u0436\u0430\u043f-\u0436\u0430\u0437\u044b\u049b
p2282
(lp2283
g3
asV\u049b\u0430\u0440\u0442-\u049b\u04b1\u0440\u0442
p2284
(lp2285
g3
asV\u0431\u04b1\u0440\u0442\u0430\u04a3-\u0431\u04b1\u0440\u0442\u0430\u04a3
p2286
(lp2287
g3
asV\u0441\u0435\u04a3\u0433\u0456\u0440-\u0441\u0435\u04a3\u0433\u0456\u0440
p2288
(lp2289
g3
asV\u0442y\u0439\u0456\u0440-\u0442y\u0439\u0456\u0440
p2290
(lp2291
g3
asV\u0441\u04d9\u043b-\u043f\u04d9\u043b
p2292
(lp2293
g3
asV\u0448\u044b\u04a3\u0434\u0430\u0439-\u0448\u044b\u04a3\u0434\u0430\u0439
p2294
(lp2295
g3
asV\u0434\u044b\u0440\u043f-\u0434\u044b\u0440\u043f
p2296
(lp2297
g3
asV\u0430\u0443\u049b\u044b\u043c-\u0430\u0443\u049b\u044b\u043c
p2298
(lp2299
g3
asV\u0430\u043f-\u0430\u043b\u0430\u0441\u0430
p2300
(lp2301
g3
asV\u049b\u04b1\u043f-\u049b\u04b1\u0440\u0493\u0430\u049b
p2302
(lp2303
g3
asV\u049b\u0430\u04a3\u0441\u044b\u049b-\u0442\u0430\u04a3\u0441\u044b\u049b
p2304
(lp2305
g3
asV\u0456\u0441\u0442\u0435\u0439-\u0456\u0441\u0442\u0435\u0439
p2306
(lp2307
g3
asV\u0448\u0430\u043f\u043f\u0430-\u0448\u0430\u043f
p2308
(lp2309
g3
asV\u0442\u04b1\u0431\u0430\u0439-\u0442\u04b1\u0431\u0430\u0439\u043b\u0430
p2310
(lp2311
g3
asV\u043ay\u0431\u0456\u0440-\u043ay\u0431\u0456\u0440
p2312
(lp2313
g3
asV\u0436\u0456\u043f-\u0436\u0456\u04a3\u0456\u0448\u043a\u0435
p2314
(lp2315
g3
asV\u0435\u0441\u0456\u043a\u043f\u0435-\u0435\u0441\u0456\u043a
p2316
(lp2317
g3
asV\u0441y\u0439\u0435\u043a-\u0441y\u0439\u0435\u0433\u0456
p2318
(lp2319
g3
asV\u043by\u043f-\u043by\u043f
p2320
(lp2321
g3
asV\u043d\u044b\u043f-\u043d\u044b\u049b
p2322
(lp2323
g3
asV\u0430\u043f\u044b\u043b-\u0442\u0430\u043f\u044b\u043b
p2324
(lp2325
g3
asV\u049b\u0430\u0436\u0430\u04a3-\u049b\u04b1\u0436\u0430\u04a3
p2326
(lp2327
g3
asVy\u0437\u0456\u043f-y\u0437\u0456\u043f
p2328
(lp2329
g3
asV\u0442\u0435\u04a3\u0431\u0435-\u0442\u0435\u04a3
p2330
(lp2331
g3
asV\u0431y\u043b\u043a-\u0431y\u043b\u043a
p2332
(lp2333
g3
asV\u0448\u0435\u043b\u0435\u043a-\u0448\u0435\u043b\u0435\u043a
p2334
(lp2335
g3
asV\u0448\u0443-\u0448\u0443
p2336
(lp2337
g3
asV\u04b1\u04a3\u0493\u044b\u043b-\u0448\u04b1\u04a3\u0493\u044b\u043b
p2338
(lp2339
g3
asV\u0443\u043b\u0430\u0439-\u0443\u043b\u0430\u0439
p2340
(lp2341
g3
asV\u0431\u0430\u0434\u0430\u043b-\u0431\u0430\u0434\u0430\u043b
p2342
(lp2343
g3
asV\u0442y\u0439\u0456\u0440\u0442\u043f\u0435\u043a-\u0442y\u0439\u0456\u0440\u0442\u043f\u0435\u043a
p2344
(lp2345
g3
asV\u0430\u0443\u044b\u043c-\u0441\u0430\u0443\u044b\u043c
p2346
(lp2347
g3
asV\u044b\u0440\u044b\u043c-\u0441\u044b\u0440\u044b\u043c\u0441\u044b\u0437
p2348
(lp2349
g3
asV\u0436\u044b\u043b\u0442\u044b\u04a3-\u0436\u044b\u043b\u0442\u044b\u04a3
p2350
(lp2351
g3
asV\u049b\u0438\u049b\u0430-\u0441\u0438\u049b\u0430\u049b
p2352
(lp2353
g3
asV\u0435\u04a3\u0441\u0435\u0440\u0456\u043f-\u0435\u04a3\u0441\u0435\u0440\u0456\u043f
p2354
(lp2355
g3
asV\u0456\u0440\u0456\u043a-\u0448\u0456\u0440\u0456\u043a
p2356
(lp2357
g3
asV\u043a\u0456\u043f-\u043a\u0456\u0448\u043a\u0435\u043d\u0435
p2358
(lp2359
g3
asV\u0448\u0438\u0440\u0430\u0442\u044b\u043f-\u0448\u0438\u0440\u0430\u0442\u044b\u043f
p2360
(lp2361
g3
asV\u049b\u0430\u0440\u0442\u0430\u04a3-\u049b\u04b1\u0440\u0442\u0430\u04a3
p2362
(lp2363
g3
asV\u0435\u0436\u0456\u043b-\u049b\u043e\u0436\u044b\u043b
p2364
(lp2365
g3
asV\u0456\u043b\u0456\u043d\u0435\u0440-\u0456\u043b\u0456\u043d\u0431\u0435\u0441
p2366
(lp2367
g3
asV\u0433y\u0436-\u0433y\u0436
p2368
(lp2369
g3
asV\u0442\u0430\u043f-\u0442\u0430\u0437\u0430
p2370
(lp2371
g3
asV\u0442\u04b1\u0440\u044b\u043f-\u0442\u04b1\u0440\u044b\u043f
p2372
(lp2373
g3
asV\u0436\u0430\u043f-\u0436\u0430\u0440\u049b\u044b\u043d
p2374
(lp2375
g3
asV\u0434y\u043a-\u0434y\u043a
p2376
(lp2377
g3
asV\u04d9\u043b\u0434\u0438-\u04d9\u043b\u0434\u0438
p2378
(lp2379
g3
asV\u0431\u0456\u0440\u0434\u0435-\u0431\u0456\u0440\u0435\u0443
p2380
(lp2381
g3
asV\u0435\u043c\u043f\u0435\u04a3-\u0435\u043c\u043f\u0435\u04a3
p2382
(lp2383
g3
asV\u043e\u049b\u0442\u044b\u043d-\u043e\u049b\u0442\u044b\u043d
p2384
(lp2385
g3
asV\u0442\u0456\u0437\u0431\u0435\u043a-\u0442\u0456\u0437\u0431\u0435\u043a
p2386
(lp2387
g3
asV\u0431\u04d9\u0439\u0435-\u0448\u04d9\u0439\u0435
p2388
(lp2389
g3
asV\u0430\u043f\u044b\u0440-\u0442\u043e\u043f\u044b\u0440
p2390
(lp2391
g3
asV\u0448\u044b\u0442-\u0448\u044b\u0442
p2392
(lp2393
g3
asV\u0430\u0442\u044b\u043f-\u0430\u0442\u044b\u043f
p2394
(lp2395
g3
asV\u0431\u0430\u0443\u043b\u0430\u043f-\u0431\u0430\u0443\u043b\u0430\u043f
p2396
(lp2397
g3
asV\u049b\u0443\u044b\u0441-\u049b\u0443\u044b\u0441
p2398
(lp2399
g3
asV\u0431\u04b1\u0440\u0430\u04a3-\u0431\u04b1\u0440\u0430\u04a3
p2400
(lp2401
g3
asV\u0435\u043c\u0456\u0441-\u0434\u0435\u043c\u0456\u0441
p2402
(lp2403
g3
asV\u049b\u0438\u044f-\u049b\u0438\u044f
p2404
(lp2405
g3
asV\u0448\u0430\u0440-\u0448\u04b1\u0440
p2406
(lp2407
g3
asV\u0442y\u0439\u0456\u043f-\u0442y\u0439\u0456\u043f
p2408
(lp2409
g3
asV\u043e\u0439-\u0445\u043e\u0439
p2410
(lp2411
g3
asV\u043ay\u043f-\u043ay\u04a3\u0433\u0456\u0440\u0442
p2412
(lp2413
g3
asV\u043c\u044b\u04a3-\u0436\u044b\u04a3
p2414
(lp2415
g3
asV\u0442\u04b1\u0493\u0436\u044b\u04a3-\u0442\u04b1\u0493\u0436\u044b\u04a3
p2416
(lp2417
g3
asV\u049b\u0430\u0441\u043f\u0430-\u049b\u0430\u0441\u043f\u0430\u049b
p2418
(lp2419
g3
asV\u049b\u0430\u049b\u0430\u04a3-\u049b\u0430\u049b\u0430\u04a3
p2420
(lp2421
g3
asV\u0436\u043e\u0441\u0430-\u0436\u043e\u0441\u0430
p2422
(lp2423
g3
asV\u043a\u04e9\u0439-\u043a\u04e9\u0439\u043b\u0435\u043f
p2424
(lp2425
g3
asV\u049b\u0430\u0439-\u049b\u0430\u0439\u0441\u044b
p2426
(lp2427
g3
asV\u049b\u0430\u0442-\u049b\u0430\u0442\u044b\u043c\u0435\u043d
p2428
(lp2429
g3
asV\u0431\u0456\u0440\u0456\u043d\u0435\u043d-\u0431\u0456\u0440\u0456
p2430
(lp2431
g3
asV\u0435\u043a\u0448\u0435\u04a3-\u0435\u043a\u0448\u0435\u04a3
p2432
(lp2433
g3
asV\u0435\u0436\u0456\u043b-\u043ay\u0436\u0456\u043b
p2434
(lp2435
g3
asV\u0448\u0430\u0443\u044b\u043f-\u0448\u0430\u0443\u044b\u043f
p2436
(lp2437
g3
asV\u0431\u04b1\u043f-\u0431\u04b1\u0439\u0440\u0430
p2438
(lp2439
g3
asV\u0436\u044b\u04a3-\u0436\u044b\u04a3
p2440
(lp2441
g3
asV\u0430\u0431\u044b\u0440-\u0441\u0430\u0431\u044b\u0440
p2442
(lp2443
g3
asV\u0442\u0456\u0441-\u0442\u0456\u0441
p2444
(lp2445
g3
asV\u049b\u0430\u0442-\u049b\u0430\u0442
p2446
(lp2447
g3
asV\u0441\u0430\u0493\u0430\u043b-\u0441\u0430\u0493\u0430\u043b
p2448
(lp2449
g3
asV\u0441\u044b\u04a3\u0493\u044b\u0440-\u0441\u044b\u04a3\u0493\u044b\u0440
p2450
(lp2451
g3
asV\u0442\u04b1\u043f-\u0442\u04b1\u043b\u0434\u044b\u0440
p2452
(lp2453
g3
asV\u0430\u0440\u049b\u0430-\u0436\u0430\u0440\u049b\u0430
p2454
(lp2455
g3
asV\u0433y\u043b-\u0433y\u043b
p2456
(lp2457
g3
asV\u0442\u0430\u049b\u044b\u043b-\u0442\u0430\u049b\u044b\u043b
p2458
(lp2459
g3
asV\u0436\u0435\u043f-\u0436\u0435\u04a3\u0456\u043b
p2460
(lp2461
g3
asV\u0448\u043e\u043b\u0430\u049b-\u0448\u043e\u043b\u0430\u049b
p2462
(lp2463
g3
asV\u04d9\u043c\u043f\u0430\u0439-\u0436\u0430\u043c\u043f\u0430\u0439
p2464
(lp2465
g3
asV\u0431\u0456\u0440\u0456\u043d\u0435-\u0431\u0456\u0440\u0456
p2466
(lp2467
g3
asV\u0434\u0456\u043a\u0456\u04a3-\u0434\u0456\u043a\u0456\u04a3
p2468
(lp2469
g3
asV\u0434\u0430\u043b\u0431\u0430\u04a3-\u0434\u0430\u043b\u0431\u0430\u04a3
p2470
(lp2471
g3
asV\u0430\u0431\u044b\u043b\u044b\u04a3\u049b\u044b-\u0441\u0430\u0431\u044b\u043b\u044b\u04a3\u049b\u044b
p2472
(lp2473
g3
asV\u043f\u0430\u0448\u044b\u0440-\u043f\u04b1\u0448\u044b\u0440
p2474
(lp2475
g3
asV\u0434\u0435\u043f-\u0434\u0435\u043c\u0434\u0435
p2476
(lp2477
g3
asV\u0434\u0430\u043b\u0431\u0430-\u0436\u04b1\u043b\u0431\u0430
p2478
(lp2479
g3
asV\u043a\u0456\u043c-\u043a\u0456\u043c\u0434\u0456
p2480
(lp2481
g3
asV\u0436\u043e\u043b-\u0436\u043e\u043b
p2482
(lp2483
g3
asV\u0448\u043e\u0440-\u0448\u043e\u0440
p2484
(lp2485
g3
asV\u0431\u043e\u0440\u0442\u0430\u04a3-\u0431\u043e\u0440\u0442\u0430\u04a3
p2486
(lp2487
g3
asV\u043c\u04d9\u0440\u0435-\u0441\u04d9\u0440\u0435
p2488
(lp2489
g3
asV\u0431\u04b1\u043b\u0442\u0430\u04a3-\u0431\u04b1\u043b\u0442\u0430\u04a3
p2490
(lp2491
g3
asV\u0436\u044b\u043b\u0434\u0430\u043d-\u0436\u044b\u043b\u0493\u0430
p2492
(lp2493
g3
asV\u0442\u043e\u043b\u0430\u0440-\u0442\u043e\u043b\u043c\u0430\u0441
p2494
(lp2495
g3
asV\u043a\u04e9\u0442\u0435\u0440\u0435-\u043c\u04e9\u0442\u0435\u0440\u0435
p2496
(lp2497
g3
asV\u0448\u043e\u0493\u044b\u0440-\u0448\u043e\u0493\u044b\u0440
p2498
(lp2499
g3
asV\u0448\u044b\u043d-\u0448\u044b\u043d\u044b
p2500
(lp2501
g3
asV\u0493\u0430\u0448\u044b\u049b-\u043c\u0430\u0448\u044b\u049b
p2502
(lp2503
g3
asV\u043d\u04d9\u043f-\u043d\u04d9\u0437\u0456\u043a
p2504
(lp2505
g3
asV\u043f\u04d9\u0440\u0448\u0435-\u043f\u04d9\u0440\u0448\u0435
p2506
(lp2507
g3
asV\u0430\u0448\u044b\u049b-\u043c\u0430\u0448\u044b\u049b
p2508
(lp2509
g3
asV\u043e\u0442\u0430\u0443-\u043e\u0442\u0430\u0443
p2510
(lp2511
g3
asV\u0448\u044b\u043f-\u0448\u044b\u043c\u044b\u0440
p2512
(lp2513
g3
asV\u0430\u043f\u044b\u0440-\u0442\u0430\u043f\u044b\u0440
p2514
(lp2515
g3
asV\u0431\u04b1\u0442\u0430-\u0431\u04b1\u0442\u0430
p2516
(lp2517
g3
asV\u049b\u0430\u0440\u0493\u044b\u043f-\u049b\u0430\u0440\u0493\u044b\u043f
p2518
(lp2519
g3
asV\u0442\u0443\u0440\u0430\u0434\u0430\u043d-\u0442\u0443\u0440\u0430
p2520
(lp2521
g3
asV\u0436\u0435\u043a\u043f\u0435-\u0436\u0435\u043a
p2522
(lp2523
g3
asV\u0441\u04b1\u043b\u0430\u043f-\u0441\u04b1\u043b\u0430\u043f
p2524
(lp2525
g3
asV\u0448\u04d9\u0443-\u0448\u04d9\u0443\u043b\u0435\u0441
p2526
(lp2527
g3
asV\u0430\u0442-\u043c\u0430\u0442
p2528
(lp2529
g3
asV\u0448\u04d9\u0439-\u0448\u04d9\u0439\u043b\u0430
p2530
(lp2531
g3
asV\u0434\u04d9\u043f-\u0434\u04d9\u043c\u0434\u0456
p2532
(lp2533
g3
asV\u0440\u0435\u0442-\u0440\u0435\u0442\u0456\u043c\u0435\u043d
p2534
(lp2535
g3
asV\u044b\u0440\u0431\u0430\u0439-\u0442\u044b\u0440\u0431\u0430\u0439
p2536
(lp2537
g3
asV\u0431\u043e\u0434\u0430-\u0431\u043e\u0434\u0430
p2538
(lp2539
g3
asV\u049b\u043e\u04a3\u044b\u0440\u0430\u0439\u0493\u0430\u043d-\u049b\u043e\u04a3\u044b\u0440\u0430\u0439\u0493\u0430\u043d
p2540
(lp2541
g3
asV\u0436\u0430\u043b\u0430\u049b-\u0436\u0430\u043b\u0430\u049b
p2542
(lp2543
g3
asV\u0436\u043e\u043b\u043c\u0430-\u0436\u043e\u043b
p2544
(lp2545
g3
asV\u0430\u0439\u049b\u0430\u043f-\u0436\u0430\u0439\u049b\u0430\u043f
p2546
(lp2547
g3
asV\u0434y\u0440-\u0434y\u0440
p2548
(lp2549
g3
asV\u0430\u04a3\u0493\u0430\u043b-\u0441\u0430\u04a3\u0493\u0430\u043b
p2550
(lp2551
g3
asV\u0436\u0430\u0439\u043c\u0430-\u0436\u0430\u0439
p2552
(lp2553
g3
asV\u04e9\u0437\u0434\u0456-\u04e9\u0437\u0456\u043d\u0456\u04a3
p2554
(lp2555
g3
asV\u049b\u044b\u0440\u0442-\u049b\u044b\u0440\u0442
p2556
(lp2557
g3
asV\u0431y\u0440\u043a\u0456\u043f-\u0431y\u0440\u043a\u0456\u043f
p2558
(lp2559
g3
asV\u0431\u043e\u0439-\u0431\u043e\u0439
p2560
(lp2561
g3
asV\u043f\u044b\u0440-\u043f\u044b\u0440\u043b\u0430
p2562
(lp2563
g3
asV\u049b\u0430\u0437\u0430\u043d-\u049b\u0430\u0437\u0430\u043d
p2564
(lp2565
g3
asV\u0442\u044b\u0493\u044b\u043f-\u0442\u044b\u0493\u044b\u043f
p2566
(lp2567
g3
asV\u0435\u043b\u043f\u0435\u04a3-\u0435\u043b\u043f\u0435\u04a3
p2568
(lp2569
g3
asV\u0448\u043e\u043c\u043f-\u0448\u043e\u043c\u043f
p2570
(lp2571
g3
asV\u049b\u0438\u0441\u044b\u049b-\u049b\u0438\u0441\u044b\u049b
p2572
(lp2573
g3
asV\u04e9\u0433\u0456\u0437-\u043c\u04e9\u0433\u0456\u0437
p2574
(lp2575
g3
asV\u0430\u0439\u0442-y\u0439\u0442
p2576
(lp2577
g3
asV\u0431\u0456\u043b\u0435\u043a\u0442\u0435\u0439-\u0431\u0456\u043b\u0435\u043a\u0442\u0435\u0439
p2578
(lp2579
g3
asV\u0441\u0430\u044f\u0441\u0430\u0442-\u043c\u0430\u044f\u0441\u0430\u0442
p2580
(lp2581
g3
asV\u0436\u0430\u043b\u0430\u04a3-\u0436\u0430\u043b\u0430\u04a3
p2582
(lp2583
g3
asV\u0441\u0435\u0440\u0435\u04a3-\u0441\u0435\u0440\u0435\u04a3
p2584
(lp2585
g3
asV\u0431\u0435\u043f-\u0431\u0435\u043b\u0433\u0456\u043b\u0456
p2586
(lp2587
g3
asV\u0441\u0435\u043b-\u0441\u0435\u043b
p2588
(lp2589
g3
asV\u043a\u04d9\u043f-\u043a\u04d9\u0440\u0456
p2590
(lp2591
g3
asV\u043b\u044b\u043f-\u043b\u044b\u043f
p2592
(lp2593
g3
asV\u049b\u0430\u0436\u0430-\u049b\u04b1\u0436\u0430\u049b
p2594
(lp2595
g3
asV\u0433y\u0440\u0441-\u0433y\u0440\u0441
p2596
(lp2597
g3
asV\u0434\u0430\u043b-\u0434\u04b1\u043b
p2598
(lp2599
g3
asV\u049b\u044b\u043b\u043c\u044b\u04a3-\u0441\u044b\u043b\u043c\u044b\u04a3
p2600
(lp2601
g3
asV\u0431\u0430\u0440\u0448\u0430-\u0431\u0430\u0440\u0448\u0430
p2602
(lp2603
g3
asV\u0448\u04e9\u043a-\u0448\u04e9\u043a
p2604
(lp2605
g3
asV\u043a\u04e9\u043f-\u043a\u04e9\u0440\u0456\u043c
p2606
(lp2607
g3
asV\u044b\u043b\u0434\u044b\u043c-\u0436\u044b\u043b\u0434\u044b\u043c
p2608
(lp2609
g3
asV\u043a\u0435\u0441\u0435-\u043a\u0435\u0441\u0435
p2610
(lp2611
g3
asV\u0430\u0443\u0437\u044b-\u0430\u0443\u0437\u044b\u043d\u0430
p2612
(lp2613
g3
asV\u043a\u04e9\u043f\u0435\u043d\u0435-\u043a\u04e9\u043f\u0435\u043d\u0435
p2614
(lp2615
g3
asVy\u043a\u0456-\u0442y\u043a\u0456
p2616
(lp2617
g3
asV\u0442\u044b\u04a3\u049b-\u0442\u044b\u04a3\u049b
p2618
(lp2619
g3
asV\u0431\u044b\u0440\u0442\u0438\u044b\u043f-\u0431\u044b\u0440\u0442\u0438\u044b\u043f
p2620
(lp2621
g3
asV\u049b\u0430\u0440\u0430\u0434\u0430\u043d-\u049b\u0430\u0440\u0430\u043f
p2622
(lp2623
g3
asV\u0431y\u0440\u0435-\u0431y\u0440\u0435
p2624
(lp2625
g3
asV\u0434\u044b\u04a3\u0493\u044b\u0440-\u0434\u044b\u04a3\u0493\u044b\u0440
p2626
(lp2627
g3
asV\u0430\u0493\u0430\u043b-\u0441\u0430\u0493\u0430\u043b
p2628
(lp2629
g3
asV\u0430\u0431\u0430\u043b\u0430\u043f-\u0441\u0430\u0431\u0430\u043b\u0430\u049b
p2630
(lp2631
g3
asV\u049b\u044b\u043d\u0436\u044b\u043b\u0430-\u049b\u044b\u043d\u0436\u044b\u043b\u0430
p2632
(lp2633
g3
asV\u0430\u0440\u0448\u0430-\u0430\u0440\u0448\u0430
p2634
(lp2635
g3
asV\u049b\u0430\u0434\u0430-\u049b\u04b1\u0434\u0430\u049b
p2636
(lp2637
g3
asV\u0431\u0435\u043b\u0433\u0456\u043b\u0456-\u0431\u0435\u043b\u0433\u0456\u043b\u0456
p2638
(lp2639
g3
asV\u0430\u0443\u044b\u043f-\u0430\u0443\u044b\u043f
p2640
(lp2641
g3
asV\u04d9\u04a3\u0433\u0435\u043b-\u0448\u04d9\u04a3\u0433\u0435\u043b
p2642
(lp2643
g3
asV\u0442\u0430\u0431\u0430\u049b-\u0442\u0430\u0431\u0430\u049b
p2644
(lp2645
g3
asV\u0431\u0435\u0443-\u0431\u0435\u0443\u043b\u0435
p2646
(lp2647
g3
asV\u0438\u0442\u0456\u043d\u0435-\u0438\u0442\u0456\u043d\u0435
p2648
(lp2649
g3
asV\u0435\u0442-\u043c\u0435\u0442
p2650
(lp2651
g3
asV\u043f\u0430\u049b-\u043f\u0430\u049b
p2652
(lp2653
g3
asV\u0436y\u0437-\u0436y\u0437\u0434\u0435\u043d
p2654
(lp2655
g3
asV\u0436y\u0437-\u0436y\u0437\u0434\u0435\u043f
p2656
(lp2657
g3
asV\u0431\u04b1\u043b\u0442\u044b\u049b-\u0431\u04b1\u043b\u0442\u044b\u049b
p2658
(lp2659
g3
asV\u0447\u0430\u043d\u0434\u0430-\u0447\u0430\u043d\u0434\u0430
p2660
(lp2661
g3
asV\u049b\u0430\u0439\u043d\u0430\u043f-\u049b\u0430\u0439\u043d\u0430\u043f
p2662
(lp2663
g3
asV\u0431\u0430\u0442\u044b\u0440\u044b\u043f-\u0431\u0430\u0442\u044b\u0440\u044b\u043f
p2664
(lp2665
g3
asV\u0433\u0443-\u0433\u0443
p2666
(lp2667
g3
asV\u044b\u0440\u049b-\u044b\u0440\u049b
p2668
(lp2669
g3
asV\u0437\u044b\u043f-\u0437\u044b\u043f
p2670
(lp2671
g3
asV\u043a\u0438\u0442\u0456\u04a3-\u043a\u0438\u0442\u0456\u04a3
p2672
(lp2673
g3
asV\u0431\u04b1\u0439\u0440\u0430\u0442-\u0431\u04b1\u0439\u0440\u0430\u0442
p2674
(lp2675
g3
asV\u0442\u04d9\u043f-\u0442\u04d9\u0442\u0442\u0456
p2676
(lp2677
g3
asV\u0443\u049b\u0430\u043b\u0430\u043f-\u0443\u049b\u0430\u043b\u0430\u043f
p2678
(lp2679
g3
asV\u0442\u044b\u0440-\u0442\u044b\u0440
p2680
(lp2681
g3
asV\u0430\u043b\u0431\u0430\u04a3-\u0434\u0430\u043b\u0431\u0430\u04a3
p2682
(lp2683
g3
asV\u0442y\u0440\u0442\u0456\u043f-\u0442y\u0440\u0442\u0456\u043f
p2684
(lp2685
g3
asV\u049b\u044b\u043b\u049b-\u049b\u044b\u043b\u049b
p2686
(lp2687
g3
asV\u0434\u0435\u043c\u0456\u043b-\u0434\u0435\u043c\u0456\u043b
p2688
(lp2689
g3
asV\u0431\u043e\u0440\u0448\u0430\u043b\u0430\u043f-\u0431\u043e\u0440\u0448\u0430\u043b\u0430\u043f
p2690
(lp2691
g3
asV\u0436\u044b\u043f-\u0436\u044b\u043f
p2692
(lp2693
g3
asV\u0435\u04a3\u043a\u0435\u0443-\u0435\u04a3\u043a\u0435\u0443
p2694
(lp2695
g3
asV\u0448\u04b1\u043f-\u0448\u04b1\u0431\u0430\u0440
p2696
(lp2697
g3
asV\u0442\u0430\u043f-\u0442\u0430\u044f\u0443
p2698
(lp2699
g3
asV\u044b\u0440\u0493\u0430\u04a3-\u044b\u0440\u0493\u0430\u04a3
p2700
(lp2701
g3
asV\u049b\u0438\u0434\u0430-\u049b\u0438\u0434\u0430
p2702
(lp2703
g3
asV\u0448\u043e\u049b-\u0448\u043e\u049b
p2704
(lp2705
g3
asV\u043c\u0435\u043b\u0448\u0438\u0435-\u043c\u0435\u043b\u0448\u0438\u0435
p2706
(lp2707
g3
asV\u0442\u0435\u0437-\u0442\u0435\u0437
p2708
(lp2709
g3
asV\u043c\u043e\u043b\u0430\u044f-\u043c\u043e\u043b\u0430\u044f
p2710
(lp2711
g3
asV\u043d\u044b\u049b-\u043d\u044b\u049b
p2712
(lp2713
g3
asV\u049b\u043e\u0440-\u049b\u043e\u0440
p2714
(lp2715
g3
asV\u0445\u0430-\u0445\u0430\u0445\u0430\u043b\u0430
p2716
(lp2717
g3
asV\u0431\u0456\u0440-\u0431\u0456\u0440\u0456\u043d\u0435
p2718
(lp2719
g3
asV\u043e\u04a3\u0431\u0430\u0493\u0430\u043d-\u043e\u04a3\u0431\u0430\u0493\u0430\u043d
p2720
(lp2721
g3
asV\u049b\u043e\u0436\u0430\u04a3-\u049b\u043e\u0436\u0430\u04a3
p2722
(lp2723
g3
asV\u0431\u0456\u043b\u0435\u043c-\u0431\u0456\u043b\u0435\u043c
p2724
(lp2725
g3
asV\u0437\u0430\u0440-\u0437\u0430\u0440
p2726
(lp2727
g3
asV\u0436\u0430\u043f\u044b\u0440\u0430-\u043c\u0430\u043f\u044b\u0440\u0430
p2728
(lp2729
g3
asV\u0431y\u0440\u0442\u0456\u043a-\u0431y\u0440\u0442\u0456\u043a
p2730
(lp2731
g3
asV\u044b\u043f-\u044b\u0441\u0442\u044b\u049b
p2732
(lp2733
g3
asV\u0442\u0435\u0440\u0435\u04a3-\u0442\u0435\u0440\u0435\u04a3
p2734
(lp2735
g3
asV\u043a\u0435\u0440\u0442\u0456\u043a-\u043a\u0435\u0440\u0442\u0456\u043a
p2736
(lp2737
g3
asV\u0448\u044b\u043f-\u0448\u044b\u043f
p2738
(lp2739
g3
asV\u0448\u0430\u043b\u0431\u0430\u0440-\u0448\u0430\u043b\u0431\u0430\u0440
p2740
(lp2741
g3
asV\u0434\u0435\u043c\u0431\u0456\u043b-\u0434\u0435\u043c\u0431\u0456\u043b
p2742
(lp2743
g3
asV\u049b\u044b\u0436-\u049b\u044b\u0436
p2744
(lp2745
g3
asV\u0436\u044b\u0440\u0430-\u0436\u044b\u0440\u0430
p2746
(lp2747
g3
asV\u0442\u044b\u0440\u043f-\u0442\u044b\u0440\u043f
p2748
(lp2749
g3
asV\u0434\u0456\u0433\u0456\u0440\u0434\u0435\u0439-\u0434\u0456\u0433\u0456\u0440\u0434\u0435\u0439
p2750
(lp2751
g3
asV\u0430\u044f\u049b-\u0430\u044f\u049b
p2752
(lp2753
g3
asV\u0434\u0443-\u0434\u0443
p2754
(lp2755
g3
asV\u0438\u0456\u0440\u0456\u043b\u0435-\u0438\u0456\u0440\u0456\u043b\u0435
p2756
(lp2757
g3
asV\u043c\u0438-\u0441\u0438
p2758
(lp2759
g3
asV\u049b\u0438\u043f\u0430\u043b\u0430\u049b\u0442\u0430\u0443-\u0441\u0438\u043f\u0430\u043b\u0430\u049b\u0442\u0430\u0443
p2760
(lp2761
g3
asV\u0448\u044b\u0440\u0442-\u0448\u044b\u0440\u0442
p2762
(lp2763
g3
asV\u04b1\u0431\u044b\u0440\u044b\u043f-\u0448\u04b1\u0431\u044b\u0440\u044b\u043f
p2764
(lp2765
g3
asV\u0431\u0456\u043b\u0434\u0435\u0439-\u0431\u0456\u043b\u0434\u0435\u0439
p2766
(lp2767
g3
asV\u0434\u04d9\u043b\u043c\u0435-\u0434\u04d9\u043b\u0434\u0456\u043a
p2768
(lp2769
g3
asV\u0442\u0438\u0435\u0440-\u0442\u0438\u043c\u0435\u0441
p2770
(lp2771
g3
asV\u043a\u04d9\u0434\u0456\u04a3-\u043ay\u0434\u0456\u04a3
p2772
(lp2773
g3
asV\u043a\u0435\u0440\u0442\u0456\u043f-\u043a\u0435\u0440\u0442\u0456\u043f
p2774
(lp2775
g3
asV\u043a\u04d9\u043c\u043f\u0438\u0442-\u0441\u04d9\u043c\u043f\u0438\u0442
p2776
(lp2777
g3
asV\u0441\u044b\u049b\u044b\u0440-\u0441\u044b\u049b\u044b\u0440
p2778
(lp2779
g3
asV\u0430\u04a3\u0441\u0430\u0439-\u0430\u04a3\u0441\u0430\u0439
p2780
(lp2781
g3
asV\u049b\u043e\u043f-\u049b\u043e\u04a3\u044b\u0440
p2782
(lp2783
g3
asV\u0448\u044b\u0436-\u0448\u044b\u0436
p2784
(lp2785
g3
asV\u04e9\u0437-\u04e9\u0437\u0456
p2786
(lp2787
g3
asV\u0431\u0430\u0441\u0430-\u0431\u0430\u0441\u0430
p2788
(lp2789
g3
asV\u04b1\u0440\u044b\u043c\u0442\u0430\u043b-\u04b1\u0440\u044b\u043c\u0442\u0430\u043b
p2790
(lp2791
g3
asV\u049b\u0430\u0443\u0436\u0430\u04a3-\u049b\u0430\u0443\u0436\u0430\u04a3
p2792
(lp2793
g3
asV\u0441\u0430\u0440-\u0441\u0430\u0440
p2794
(lp2795
g3
asV\u049b\u0430\u0493\u044b\u043f-\u049b\u0430\u0493\u044b\u043f
p2796
(lp2797
g3
asV\u0442\u0430\u043c-\u0442\u04b1\u043c\u0434\u0430\u043f
p2798
(lp2799
g3
asV\u049b\u0430\u0431\u0430\u0442-\u049b\u0430\u0431\u0430\u0442
p2800
(lp2801
g3
asV\u0436\u0435\u043a\u0435\u043c\u0435-\u0436\u0435\u043a\u0435
p2802
(lp2803
g3
asV\u043e\u0440\u043d\u044b-\u043e\u0440\u043d\u044b\u043c\u0435\u043d
p2804
(lp2805
g3
asV\u0436\u044b\u043d\u044b\u0441-\u0436\u044b\u043d\u044b\u0441
p2806
(lp2807
g3
asV\u0431\u044b\u0436\u044b\u04a3-\u0431\u044b\u0436\u044b\u04a3
p2808
(lp2809
g3
asV\u0436\u0430\u0440\u044b\u049b-\u0436\u0430\u0440\u044b\u049b
p2810
(lp2811
g3
asV\u043c\u0430\u0443\u044b\u0437\u0434\u0430\u0439-\u043c\u0430\u0443\u044b\u0437\u0434\u0430\u0439
p2812
(lp2813
g3
asV\u0442y\u0442\u0435-\u0442y\u0442\u0435
p2814
(lp2815
g3
asV\u0448\u0435\u0433\u0435-\u0448\u0435\u0433\u0435
p2816
(lp2817
g3
asV\u0448\u044b\u0493\u0430-\u0448\u044b\u0493\u0430
p2818
(lp2819
g3
asV\u0431\u044b\u0440\u049b-\u0431\u044b\u0440\u049b
p2820
(lp2821
g3
asV\u0442\u043e\u0437-\u0442\u043e\u0437
p2822
(lp2823
g3
asV\u0448\u044b\u043c-\u0448\u044b\u043c\u0434\u0430\u043f
p2824
(lp2825
g3
asV\u0430\u043d\u0434\u044b\u0437-\u0430\u043d\u0434\u044b\u0437
p2826
(lp2827
g3
asV\u0431\u0430\u0443\u044b\u0440\u0441\u0430\u049b\u0442\u0430\u0439-\u0431\u0430\u0443\u044b\u0440\u0441\u0430\u049b\u0442\u0430\u0439
p2828
(lp2829
g3
asV\u049b\u043e\u043f-\u049b\u043e\u044e
p2830
(lp2831
g3
asV\u0442\u0430\u043f\u044b\u0440-\u0442\u04b1\u043f\u044b\u0440
p2832
(lp2833
g3
asV\u043a\u0435\u0443-\u043a\u0435\u0443\u043b\u0435
p2834
(lp2835
g3
asV\u0431\u0456\u043b\u0435\u0443-\u0431\u0456\u043b\u0435\u0443
p2836
(lp2837
g3
asV\u0430\u0439\u043f\u0430\u0440-\u0436\u0430\u0439\u043f\u0430\u0440
p2838
(lp2839
g3
asV\u0442\u043e\u049b\u044b\u043c\u0434\u0430\u0439-\u0442\u043e\u049b\u044b\u043c\u0434\u0430\u0439
p2840
(lp2841
g3
asV\u0442\u0430\u0440\u043f-\u0442\u04b1\u0440\u043f
p2842
(lp2843
g3
asV\u0442y\u043f-\u0442y\u0433\u0435\u043b
p2844
(lp2845
g3
asV\u0442\u044b\u0440-\u0442\u044b\u0440\u043b\u0430
p2846
(lp2847
g3
asV\u043e\u0439\u043f\u0430\u04a3-\u0442\u043e\u0439\u043f\u0430\u04a3
p2848
(lp2849
g3
asV\u0436\u043e\u0442\u0430-\u0436\u043e\u0442\u0430
p2850
(lp2851
g3
asV\u0431\u044b\u0436-\u0431\u044b\u0436
p2852
(lp2853
g3
asV\u049b\u043e\u0440\u0430-\u049b\u043e\u0440\u0430
p2854
(lp2855
g3
asV\u0435\u04a3\u043a-\u0435\u04a3\u043a
p2856
(lp2857
g3
asV\u0430\u0434\u044b\u0440\u0430\u04a3-\u0430\u0434\u044b\u0440\u0430\u04a3
p2858
(lp2859
g3
asV\u0441\u0456\u043b\u0435\u0439\u0456\u043f-\u0441\u0456\u043b\u0435\u0439\u0456\u043f
p2860
(lp2861
g3
asV\u049b\u043e\u0442-\u049b\u043e\u0442\u0442\u0430\u043f
p2862
(lp2863
g3
asV\u0437\u0430\u04a3\u049b-\u0437\u0430\u04a3\u049b
p2864
(lp2865
g3
asV\u04d9\u043b\u0435\u043c\u0456\u0448-\u043ay\u043b\u0435\u043c\u0456\u0448
p2866
(lp2867
g3
asV\u0442\u043e\u0441\u044b\u043d\u043d\u0430\u043d-\u0442\u043e\u0441\u044b\u043d
p2868
(lp2869
g3
asV\u0433\u04e9\u0439-\u0433\u04e9\u0439
p2870
(lp2871
g3
asV\u0430\u043b\u0434\u044b\u04a3-\u0434y\u043b\u0434\u0456\u04a3
p2872
(lp2873
g3
asV\u0448\u0438\u0448\u0430-\u043f\u0438\u0448\u0430
p2874
(lp2875
g3
asV\u0433\u0443-\u0433\u0443\u043b\u0435
p2876
(lp2877
g3
asV\u0448\u0430\u04a3\u049b-\u0448\u0430\u04a3\u049b
p2878
(lp2879
g3
asV\u0442\u044b\u0440\u044b\u043c-\u0442\u044b\u0440\u044b\u043c
p2880
(lp2881
g3
asV\u043ay\u043d\u0431\u0435-\u043ay\u043d
p2882
(lp2883
g3
asV\u0448\u04b1\u043b\u0493\u044b\u043f-\u0448\u04b1\u043b\u0493\u044b\u043f
p2884
(lp2885
g3
asV\u0447\u0430\u049b-\u0447\u04b1\u049b
p2886
(lp2887
g3
asV\u0434\u044b\u0431\u0434\u044b\u0440-\u0434\u044b\u0431\u0434\u044b\u0440
p2888
(lp2889
g3
asV\u0441\u043e\u0440\u043f-\u0441\u043e\u0440\u043f
p2890
(lp2891
g3
asV\u0430\u043d\u0434\u044b\u0437\u0434\u0430\u043f-\u0430\u043d\u0434\u044b\u0437\u0434\u0430\u043f
p2892
(lp2893
g3
asV\u049b\u043e\u0440\u049b\u0430-\u049b\u043e\u0440\u049b\u0430
p2894
(lp2895
g3
asV\u0434\u0430\u0440\u0430-\u0434\u0430\u0440\u0430
p2896
(lp2897
g3
asV\u0431\u0430\u0442\u043f\u0430\u049b-\u0431\u0430\u0442\u043f\u0430\u049b
p2898
(lp2899
g3
asV\u049b\u0430\u043b\u0442-\u049b\u04b1\u043b\u0442
p2900
(lp2901
g3
asV\u0431\u04b1\u0434\u044b\u0440-\u0431\u04b1\u0434\u044b\u0440
p2902
(lp2903
g3
asV\u0434y\u0440\u0441-\u0434y\u0440\u0441
p2904
(lp2905
g3
asV\u04e9\u0440\u0456\u043c-\u04e9\u0440\u0456\u043c
p2906
(lp2907
g3
asV\u0442\u0435\u043f-\u0442\u0435\u0437
p2908
(lp2909
g3
asV\u043ay\u043d\u04d9\u0441\u0456\u0437\u0434\u0430\u043d-\u043ay\u043d\u04d9\u0441\u0456\u0437
p2910
(lp2911
g3
asV\u0436\u0430\u043f-\u0436\u0430\u049b\u0441\u044b
p2912
(lp2913
g3
asV\u049b\u044b\u0440\u043b\u044b-\u049b\u044b\u0440\u043b\u044b
p2914
(lp2915
g3
asV\u0430\u043f\u0430\u0439-\u0442\u043e\u043f\u0430\u0439
p2916
(lp2917
g3
ag3
asV\u049b\u0430\u0443\u044b\u043f-\u049b\u0430\u0443\u044b\u043f
p2918
(lp2919
g3
asV\u0434\u043e\u0431\u0430\u043b\u0434\u0430\u0439-\u0434\u043e\u0431\u0430\u043b\u0434\u0430\u0439
p2920
(lp2921
g3
asV\u0435\u0441\u0456\u043a-\u0435\u0441\u0456\u043a\u0442\u0456
p2922
(lp2923
g3
asV\u043c\u0435\u043d-\u043c\u0435\u043d\u0441\u0443
p2924
(lp2925
g3
asV\u0441\u0435\u043d\u0434\u0435\u0439-\u0441\u0435\u043d\u0434\u0435\u0439
p2926
(lp2927
g3
asV\u0435\u0442\u043f\u0435\u043d-\u0435\u0442
p2928
(lp2929
g3
asV\u0436\u044b\u043b\u0434\u0430-\u0436\u044b\u043b\u0434\u0430
p2930
(lp2931
g3
asV\u0438\u043c\u0435\u04a3-\u0438\u043c\u0435\u04a3
p2932
(lp2933
g3
asV\u0436\u0430\u049b-\u0436\u0430\u049b
p2934
(lp2935
g3
asV\u0436\u0430\u043b\u0442\u0430\u049b-\u0436\u0430\u043b\u0442\u0430\u049b
p2936
(lp2937
g3
asV\u0441\u044b\u0440\u043f-\u0441\u044b\u0440\u043f
p2938
(lp2939
g3
asV\u0456\u0440\u043a-\u0456\u0440\u043a
p2940
(lp2941
g3
asV\u0456\u0440\u0456\u043c\u0442\u0456\u043a-\u0456\u0440\u0456\u043c\u0442\u0456\u043a
p2942
(lp2943
g3
asV\u0431y\u0440\u0441\u0435\u04a3-\u0431y\u0440\u0441\u0435\u04a3
p2944
(lp2945
g3
asV\u044b\u04a3-\u0448\u044b\u04a3\u0441\u044b\u0437
p2946
(lp2947
g3
asV\u0442\u044b\u043f\u044b\u0440-\u0442\u044b\u043f\u044b\u0440
p2948
(lp2949
g3
asV\u049b\u0430\u0443\u0434\u044b\u0440-\u049b\u0430\u0443\u0434\u044b\u0440
p2950
(lp2951
g3
asV\u0430\u0439\u0442-\u0430\u0439\u0442
p2952
(lp2953
g3
asV\u0431\u04d9\u043b\u0434\u0456\u0440-\u0431\u0430\u0442\u043f\u0430\u049b
p2954
(lp2955
g3
asV\u0436\u04d9\u0443\u0442\u0435\u04a3-\u0436\u04d9\u0443\u0442\u0435\u04a3
p2956
(lp2957
g3
asV\u043f\u0430\u0440\u0430-\u043f\u0430\u0440\u0430
p2958
(lp2959
g3
asV\u043a\u0435\u043f-\u043a\u0435\u04a3
p2960
(lp2961
g3
asV\u0436\u0430\u043f-\u0436\u0430\u04a3\u0430
p2962
(lp2963
g3
asV\u0441\u044b\u043f-\u0441\u0438\u0434\u0430
p2964
(lp2965
g3
asV\u0436y\u043a-\u0436y\u043a
p2966
(lp2967
g3
asV\u049b\u0438\u043c\u0430-\u0436\u0438\u043c\u0430
p2968
(lp2969
g3
asV\u0434y\u043b-\u0434y\u043b
p2970
(lp2971
g3
asV\u0431\u04e9\u043b\u0435\u043a-\u0431\u04e9\u043b\u0435\u043a
p2972
(lp2973
g3
asV\u0443\u043c\u0430-\u0436\u0443\u043c\u0430
p2974
(lp2975
g3
asV\u0430\u043f\u044b\u0440\u044b\u043f-\u0436\u0430\u043f\u044b\u0440\u044b\u043f
p2976
(lp2977
g3
asV\u0437\u043e\u0440\u0430\u0439\u044b\u043f-\u0437\u043e\u0440\u0430\u0439\u044b\u043f
p2978
(lp2979
g3
asV\u0431\u0430\u043b\u043f-\u0431\u0430\u043b\u043f
p2980
(lp2981
g3
asV\u0435\u043b\u043f-\u0435\u043b\u043f
p2982
(lp2983
g3
asV\u0441\u044b\u043f-\u0441\u044b\u043c\u0431\u0430\u043b
p2984
(lp2985
g3
asV\u0431\u04e9\u0433\u0435\u0442-\u0441\u04e9\u0433\u0435\u0442
p2986
(lp2987
g3
asV\u0441y\u043f-\u0441y\u0439\u043a\u0456\u043c\u0434\u0456
p2988
(lp2989
g3
asV\u049b\u04b1\u0440\u0436\u044b\u04a3-\u049b\u04b1\u0440\u0436\u044b\u04a3
p2990
(lp2991
g3
asV\u04d9\u0440\u0435\u04a3-\u043f\u04d9\u0440\u0435\u04a3
p2992
(lp2993
g3
asV\u0431\u0430\u0436\u0430\u049b-\u0431\u0430\u0436\u0430\u049b
p2994
(lp2995
g3
asV\u0430\u0440\u0441\u0430-\u0430\u0440\u0441\u0430
p2996
(lp2997
g3
asV\u043e\u0442\u0430\u0440-\u043e\u0442\u0430\u0440
p2998
(lp2999
g3
asV\u0442\u043e\u043f-\u0442\u043e\u043c\u043f\u0430\u049b
p3000
(lp3001
g3
asV\u0448\u04b1\u043f-\u0448\u04b1\u043d\u0430\u049b
p3002
(lp3003
g3
asV\u0431\u0430\u0440-\u0431\u0430\u0440
p3004
(lp3005
g3
asV\u0442\u0430\u04a3\u049b-\u0442\u0430\u04a3\u049b
p3006
(lp3007
g3
asV\u0435\u0434\u0456\u0440\u0435\u04a3-\u0435\u0434\u0456\u0440\u0435\u04a3
p3008
(lp3009
g3
asV\u04d9\u043c\u043f\u0435\u0439-\u0436\u04d9\u043c\u043f\u0435\u0439
p3010
(lp3011
g3
asV\u049b\u0430\u0440\u0430\u04a3-\u049b\u0430\u0440\u0430\u04a3
p3012
(lp3013
g3
asV\u043d\u0430\u049b\u043f\u0430-\u043d\u0430\u049b\u0442\u044b\u049b
p3014
(lp3015
g3
asV\u049b\u0430\u0440\u0430\u0439\u043b\u0430\u0439-\u049b\u0430\u0440\u0430\u0439\u043b\u0430\u0439
p3016
(lp3017
g3
asV\u043b\u0435\u043a-\u043b\u0435\u043a
p3018
(lp3019
g3
asV\u0436\u04b1\u043b\u044b\u043c-\u0436\u04b1\u043b\u044b\u043c
p3020
(lp3021
g3
asV\u0431\u0456\u0440\u0441\u0456\u043d-\u0431\u0456\u0440\u0441\u0456\u043d
p3022
(lp3023
g3
asV\u0434\u0456\u043a-\u0434\u0456\u043a
p3024
(lp3025
g3
asV\u0435\u0442\u0456\u043a-\u043c\u0435\u0442\u0456\u043a
p3026
(lp3027
g3
asV\u0430\u0440\u043f\u0430\u04a3-\u0442\u0430\u0440\u043f\u0430\u04a3
p3028
(lp3029
g3
asV\u049b\u04b1\u0440\u0430\u0439-\u049b\u04b1\u0440\u0430\u0439
p3030
(lp3031
g3
asV\u0442\u04e9\u043d\u0456\u043f-\u0442\u04e9\u043d\u0456\u043f
p3032
(lp3033
g3
asV\u04e9\u0437\u0456\u043c\u043d\u0435\u043d-\u04e9\u0437\u0456\u043c
p3034
(lp3035
g3
asV\u043ay\u043b\u0434\u0456\u0440-\u043ay\u043b\u0434\u0456\u0440
p3036
(lp3037
g3
asV\u0437\u044b\u04a3-\u0437\u044b\u04a3
p3038
(lp3039
g3
asV\u0448\u044b\u043f-\u0448\u0438\u0440\u0430\u049b
p3040
(lp3041
g3
asV\u0442\u0430\u043f-\u0442\u0430\u0442\u0443
p3042
(lp3043
g3
asV\u0442\u0430\u043f-\u0442\u0430\u0440\u0493\u044b\u043b
p3044
(lp3045
g3
asV\u049b\u043e\u043b\u049b-\u049b\u043e\u043b\u049b
p3046
(lp3047
g3
asV\u0434y\u043d-\u0434y\u043d\u0438\u0435
p3048
(lp3049
g3
ag3
asV\u0434y\u043c\u043f-\u0434y\u043c\u043f
p3050
(lp3051
g3
asV\u044b\u0440\u0431\u0430\u04a3-\u0436\u044b\u0440\u0431\u0430\u04a3
p3052
(lp3053
g3
asV\u0430\u0439\u044b\u0440\u044b\u043f-\u0430\u0439\u044b\u0440\u044b\u043f
p3054
(lp3055
g3
asV\u049b\u043e\u043b\u043f-\u049b\u043e\u043b\u043f
p3056
(lp3057
g3
asV\u0430\u0440\u0430-\u0430\u0440\u0430\u0441\u044b\u043d\u0434\u0430
p3058
(lp3059
g3
asV\u0437\u0430\u04a3\u0493\u0430\u0440-\u0437\u0430\u04a3\u0493\u0430\u0440
p3060
(lp3061
g3
asV\u0436\u04b1\u043f-\u0436\u04b1\u043c\u0441\u0430\u049b
p3062
(lp3063
g3
asV\u04d9\u043f\u0442\u0435\u0440-\u0442\u04d9\u043f\u0442\u0435\u0440
p3064
(lp3065
g3
asV\u043ay\u0441-\u043ay\u0441
p3066
(lp3067
g3
asV\u0442\u044b\u043f-\u0442\u044b\u043d\u044b\u049b
p3068
(lp3069
g3
asV\u043ay\u0440\u043a-\u043ay\u0440\u043a
p3070
(lp3071
g3
asV\u0430\u0439\u0431\u0430\u049b-\u0441\u0430\u0439\u0431\u0430\u049b
p3072
(lp3073
g3
asV\u0431\u04d9\u0440\u0456\u043d-\u0431\u04d9\u0440\u0456\u043d
p3074
(lp3075
g3
asV\u0441y\u043c\u0456\u0440\u0435\u0439\u0442\u0456\u043f-\u0441y\u043c\u0456\u0440\u0435\u0439\u0442\u0456\u043f
p3076
(lp3077
g3
asV\u0442\u0430\u0440\u0441-\u0442\u04b1\u0440\u0441
p3078
(lp3079
g3
asV\u0441\u0435\u043a\u0456\u0440\u0435-\u0441\u0435\u043a\u0456\u0440\u0435
p3080
(lp3081
g3
asV\u0431\u04b1\u0440\u044b\u0448-\u0431\u04b1\u0440\u044b\u0448
p3082
(lp3083
g3
asV\u0436\u044b\u043f-\u0436\u044b\u043b\u0442\u044b\u0440
p3084
(lp3085
g3
asV\u0431\u0430\u043b\u043f\u0430\u04a3-\u0431\u0430\u043b\u043f\u0430\u04a3
p3086
(lp3087
g3
asV\u0441\u044b\u043f-\u0441\u044b\u043f
p3088
(lp3089
g3
asV\u0442\u0435\u043f\u0441\u0456\u043d\u0456\u043f-\u0442\u0435\u043f\u0441\u0456\u043d\u0456\u043f
p3090
(lp3091
g3
asV\u0441\u0430\u043b\u049b\u0430\u0440-\u0441\u0430\u043b\u049b\u0430\u0440
p3092
(lp3093
g3
asV\u0431\u0430\u043b\u0434\u044b\u0440-\u0431\u04b1\u043b\u0434\u044b\u0440
p3094
(lp3095
g3
asV\u0431\u0443\u043b\u044b\u0493\u044b\u043f-\u0431\u0443\u043b\u044b\u0493\u044b\u043f
p3096
(lp3097
g3
asV\u0434\u0430\u0439-\u0434\u0430\u0439
p3098
(lp3099
g3
asV\u0431\u0430\u0443\u044b\u0440\u043b\u0430\u043f-\u0431\u0430\u0443\u044b\u0440\u043b\u0430\u043f
p3100
(lp3101
g3
asV\u0434\u043e\u0434\u0430-\u0434\u043e\u0434\u0430
p3102
(lp3103
g3
asV\u0443\u043c\u0430\u043d-\u0434\u0443\u043c\u0430\u043d
p3104
(lp3105
g3
asV\u049b\u044b\u043c\u0431\u0430\u0442-\u049b\u044b\u043c\u0431\u0430\u0442
p3106
(lp3107
g3
asV\u0448\u04d9\u04a3\u043a\u0456\u043b\u0434\u0435\u043f-\u0448\u04d9\u04a3\u043a\u0456\u043b\u0434\u0435\u043f
p3108
(lp3109
g3
asV\u04d9\u0440\u0435\u04a3-\u043c\u04d9\u0440\u0435\u04a3
p3110
(lp3111
g3
asV\u043ay\u0439\u0431\u0435\u04a3-\u043ay\u0439\u0431\u0435\u04a3
p3112
(lp3113
g3
asV\u049b\u0430\u043b\u0442\u0430-\u043c\u0430\u043b\u0442\u0430
p3114
(lp3115
g3
asV\u044b\u043b\u043f\u044b\u04a3-\u0436\u044b\u043b\u043f\u044b\u04a3
p3116
(lp3117
g3
asV\u0448\u044b\u04a3\u049b-\u0448\u044b\u04a3\u049b
p3118
(lp3119
g3
asV\u0435\u0434\u0456\u0440\u0435\u0439\u0456\u043f-\u0435\u0434\u0456\u0440\u0435\u0439\u0456\u043f
p3120
(lp3121
g3
asVy\u043d-\u0442y\u043d\u0441\u0456\u0437
p3122
(lp3123
g3
asV\u0442\u0456\u043f-\u0442\u0438\u0442\u0442\u0435\u0439
p3124
(lp3125
g3
asV\u0430\u043b\u0434\u044b-\u0430\u043b\u0434\u044b\u043d\u0430
p3126
(lp3127
g3
asV\u0436\u04e9\u043d-\u0436\u04e9\u043d\u0456\u043d\u0435
p3128
(lp3129
g3
asV\u043ay\u0442\u0456\u0440-\u043ay\u0442\u0456\u0440
p3130
(lp3131
g3
asV\u0441\u0435\u043a\u0456\u0440\u0456\u043f-\u0441\u0435\u043a\u0456\u0440\u0456\u043f
p3132
(lp3133
g3
asV\u0436\u0430\u043f-\u0436\u0430\u043c\u0430\u043d
p3134
(lp3135
g3
asV\u0431\u04b1\u043b\u049b\u044b\u043d\u044b\u043f-\u0431\u04b1\u043b\u049b\u044b\u043d\u044b\u043f
p3136
(lp3137
g3
asV\u0441\u0435\u043b\u0435\u0443-\u0441\u0435\u043b\u0435\u0443
p3138
(lp3139
g3
asV\u043c\u04e9\u04a3\u043a\u0456\u043f-\u043c\u04e9\u04a3\u043a\u0456\u043f
p3140
(lp3141
g3
asV\u049b\u043e\u049b\u0442\u044b\u049b-\u0441\u043e\u049b\u0442\u044b\u049b
p3142
(lp3143
g3
asV\u0436\u0456\u043a-\u0436\u0456\u043a
p3144
(lp3145
g3
asV\u04b1\u043d-\u04b1\u043d
p3146
(lp3147
g3
asV\u0442\u044b\u043f-\u0442\u044b\u043d\u044b\u0448
p3148
(lp3149
g3
asV\u0443\u049b\u0430\u043d-\u0441\u0443\u049b\u0430\u043d
p3150
(lp3151
g3
asV\u0442y\u0439\u043c\u0435-\u043cy\u0439\u043c\u0435
p3152
(lp3153
g3
asV\u0442\u0430\u0440\u0431\u0430\u049b-\u0442\u0430\u0440\u0431\u0430\u049b
p3154
(lp3155
g3
asV\u044b\u043c\u049b\u044b\u0440\u044b\u043f-\u0436\u044b\u043c\u049b\u044b\u0440\u044b\u043f
p3156
(lp3157
g3
asV\u0436\u0430\u0440\u049b-\u0436\u0430\u0440\u049b
p3158
(lp3159
g3
asV\u0442\u044b\u043f-\u0442\u044b\u0493\u044b\u0437
p3160
(lp3161
g3
asV\u0436\u044b\u043f-\u0436\u0438\u043d\u0430\u049b\u044b
p3162
(lp3163
g3
asV\u0430\u0437\u0430\u0440-\u043c\u0430\u0437\u0430\u0440
p3164
(lp3165
g3
asV\u0430\u043f-\u0430\u043b\u0430
p3166
(lp3167
g3
asV\u0434\u0456\u043a\u0435\u04a3-\u0434\u0456\u043a\u0435\u04a3
p3168
(lp3169
g3
asV\u0435\u0440\u0431\u0438\u0456\u043f-\u0435\u0440\u0431\u0438\u0456\u043f
p3170
(lp3171
g3
asV\u04e9\u043b\u0435-\u04e9\u043b\u0435
p3172
(lp3173
g3
asV\u0441\u044b\u0431\u0434\u044b\u0440-\u0441\u044b\u0431\u0434\u044b\u0440
p3174
(lp3175
g3
asV\u0436\u0430\u043b\u0430\u0439-\u0436\u0430\u043b\u0430\u0439
p3176
(lp3177
g3
asV\u0434\u043e\u043f-\u0434\u043e\u043c\u0430\u043b\u0430\u049b
p3178
(lp3179
g3
asV\u0436y\u0439\u0435-\u0436y\u0439\u0435\u0441\u0456
p3180
(lp3181
g3
asV\u043e\u043b\u049b\u044b\u043b\u044b-\u0442\u043e\u043b\u049b\u044b\u043b\u044b
p3182
(lp3183
g3
asV\u043f\u0430\u0440-\u043f\u0430\u0440\u0434\u0430\u043d
p3184
(lp3185
g3
asV\u044b\u043d\u044b\u049b\u044b-\u043c\u044b\u043d\u044b\u049b\u044b
p3186
(lp3187
g3
asV\u043f\u0430\u0439-\u043f\u0430\u0439
p3188
(lp3189
g3
asV\u0435\u043a\u0435\u0443-\u0435\u043a\u0435\u0443
p3190
(lp3191
g3
asV\u0448\u044b\u0436-\u043c\u044b\u0436
p3192
(lp3193
g3
asV\u049b\u0430\u0440\u0430\u0439-\u049b\u0430\u0440\u0430\u0439
p3194
(lp3195
g3
asV\u043c\u04e9\u043f-\u043c\u04e9\u043b\u0434\u0456\u0440
p3196
(lp3197
g3
asV\u043ay\u043f\u0430\u043d\u0430-\u043ay\u043f\u0430\u043d\u0430
p3198
(lp3199
g3
asV\u0442\u0456\u043f-\u0442\u0456\u043a\u0435
p3200
(lp3201
g3
asV\u0436\u044b\u043b\u043f-\u0436\u044b\u043b\u043f
p3202
(lp3203
g3
asV\u043a\u0435\u0437\u0435\u04a3-\u043a\u0435\u0437\u0435\u04a3
p3204
(lp3205
g3
asV\u043a\u0435\u0441-\u043a\u0435\u0441\u0442\u0435
p3206
(lp3207
g3
asV\u0441\u044b\u043f-\u0441\u044b\u043b\u0434\u0430\u0440
p3208
(lp3209
g3
asV\u0431\u043e\u0439\u043b\u0430\u043f-\u0431\u043e\u0439\u043b\u0430\u043f
p3210
(lp3211
g3
asV\u0431\u04e9\u0440\u0442\u0435\u043a-\u0431\u04e9\u0440\u0442\u0435\u043a
p3212
(lp3213
g3
asV\u043a\u04e9\u0440\u0435-\u043a\u04e9\u0440\u0435
p3214
(lp3215
g3
asV\u043d\u0430\u049b\u043f\u0430-\u043d\u0430\u049b
p3216
(lp3217
g3
asV\u0430\u0443\u044b\u0437\u0431\u0430-\u0430\u0443\u044b\u0437
p3218
(lp3219
g3
asV\u0430\u0443\u044b\u0440-\u0430\u0443\u044b\u0440
p3220
(lp3221
g3
asV\u0431\u0456\u0440-\u0431\u0456\u0440\u043b\u0435\u043f
p3222
(lp3223
g3
asV\u0442\u0435\u043f-\u0442\u0435\u0433\u0456\u043d
p3224
(lp3225
g3
asV\u0434y\u04a3\u0433\u0456\u0440-\u0434y\u04a3\u0433\u0456\u0440
p3226
(lp3227
g3
asV\u0431\u0456\u0440\u0434\u0435\u043d-\u0431\u0456\u0440\u0433\u0435
p3228
(lp3229
g3
asV\u0436\u0430\u043f-\u0436\u0430\u0441\u044b\u043b
p3230
(lp3231
g3
asV\u049b\u0438\u044b\u0440-\u0448\u0438\u044b\u0440
p3232
(lp3233
g3
asV\u044b\u0440\u044b\u043c-\u0436\u044b\u0440\u044b\u043c
p3234
(lp3235
g3
asV\u049b\u043e\u049b\u044b\u043c-\u0441\u043e\u049b\u044b\u043c
p3236
(lp3237
g3
asV\u0442\u0430\u043b\u043c\u0430-\u0442\u0430\u043b
p3238
(lp3239
g3
asV\u04b1\u0431\u0430\u0439-\u0436\u04b1\u0431\u0430\u0439
p3240
(lp3241
g3
asV\u0442\u04e9\u0433\u0456\u043f-\u0442\u04e9\u0433\u0456\u043f
p3242
(lp3243
g3
asV\u043a\u04e9\u0442\u0435\u0440\u0435-\u043a\u04e9\u0442\u0435\u0440\u0435
p3244
(lp3245
g3
asV\u0442\u04d9\u043f-\u0442\u04d9\u0443\u0456\u0440
p3246
(lp3247
g3
asV\u0436\u0430\u04a3\u0430-\u0436\u0430\u04a3\u0430
p3248
(lp3249
g3
asV\u0433y\u0440-\u0433y\u0440
p3250
(lp3251
g3
asV\u04d9\u0439\u0434\u0456\u043a-\u0448\u04d9\u0439\u0434\u0456\u043a
p3252
(lp3253
g3
asV\u049b\u04b1\u0431\u0430-\u049b\u04b1\u043f
p3254
(lp3255
g3
asV\u043a\u04e9\u043f\u0435-\u043a\u04e9\u0440\u043d\u0435\u0443
p3256
(lp3257
g3
asV\u0448\u0435\u0440\u0442\u0456\u043f-\u0448\u0435\u0440\u0442\u0456\u043f
p3258
(lp3259
g3
asV\u049b\u0430\u0439\u044b\u049b-\u043c\u0430\u0439\u044b\u049b
p3260
(lp3261
g3
asV\u0436\u0430\u043b\u043f-\u0436\u0430\u043b\u043f
p3262
(lp3263
g3
asV\u043a\u04e9\u0440\u0448\u0456-\u043a\u04e9\u0440\u0448\u0456
p3264
(lp3265
g3
asV\u0442\u0435\u043f-\u0442\u0435\u0433\u0456\u0441
p3266
(lp3267
g3
asV\u0431\u0456\u0440-\u0431\u0456\u0440\u0456\u043c\u0456\u0437
p3268
(lp3269
g3
asV\u049b\u04b1\u043b\u0430\u0439-\u049b\u04b1\u043b\u0430\u0439
p3270
(lp3271
g3
asV\u0431\u0443\u0434\u0430\u049b-\u0431\u0443\u0434\u0430\u049b
p3272
(lp3273
g3
asV\u0431y\u043a\u0448\u0435\u04a3-\u0431y\u043a\u0448\u0435\u04a3
p3274
(lp3275
g3
asV\u0437\u0456\u0440\u043a-\u0437\u0456\u0440\u043a
p3276
(lp3277
g3
asV\u0448\u044b\u043f-\u0448\u044b\u0440\u0493\u0430
p3278
(lp3279
g3
asV\u0436\u0435\u0440-\u0436\u0435\u0440\u0434\u0435\u043d
p3280
(lp3281
g3
asV\u043c\u0435\u043d-\u043c\u0435\u043d\u0434\u0456\u043a
p3282
(lp3283
g3
asV\u0431\u044b\u0440\u0442-\u0431\u044b\u0440\u0442
p3284
(lp3285
g3
asV\u0438\u0437\u0435\u043f-\u0438\u0437\u0435\u043f
p3286
(lp3287
g3
asV\u043e\u0439\u0434\u044b\u043c-\u043e\u0439\u0434\u044b\u043c
p3288
(lp3289
g3
asV\u0431\u0435\u043b\u0435\u0441-\u0431\u0435\u043b\u0435\u0441
p3290
(lp3291
g3
asV\u0431\u0438\u043f\u0430\u0437\u0434\u0430\u043f-\u043c\u0438\u043f\u0430\u0437\u0434\u0430\u043f
p3292
(lp3293
g3
asV\u04d9\u043b\u0433\u0456\u043d\u0434\u0435\u0439-\u04d9\u043b\u0433\u0456\u043d\u0434\u0435\u0439
p3294
(lp3295
g3
asV\u0442\u0435\u04a3\u0433\u0435\u0434\u0435\u0439-\u0442\u0435\u04a3\u0433\u0435\u0434\u0435\u0439
p3296
(lp3297
g3
asV\u0448\u044b\u043b\u0434\u044b\u0440-\u0448\u044b\u043b\u0434\u044b\u0440
p3298
(lp3299
g3
asV\u044b\u0440\u0493\u0430\u0441\u0430-\u0436\u044b\u0440\u0493\u0430\u0441\u0430
p3300
(lp3301
g3
asV\u0431\u0430\u0437-\u0431\u0430\u0437\u0434\u0430
p3302
(lp3303
g3
asV\u0430\u0443\u043d\u0430\u0439-\u0430\u0443\u043d\u0430\u0439
p3304
(lp3305
g3
asV\u049b\u0430\u0442\u0442\u044b-\u049b\u0430\u0442\u0442\u044b
p3306
(lp3307
g3
asV\u0441\u0430\u043b\u0442\u0430\u049b-\u0441\u0430\u043b\u0442\u0430\u049b
p3308
(lp3309
g3
asV\u043a\u0435\u0440\u0456\u043f-\u043a\u0435\u0440\u0456\u043f
p3310
(lp3311
g3
asV\u0431\u0435\u0437\u0435\u043a-\u0431\u0435\u0437\u0435\u043a
p3312
(lp3313
g3
asV\u0436\u044b\u0440\u0442\u0430\u04a3-\u0436\u044b\u0440\u0442\u0430\u04a3
p3314
(lp3315
g3
asV\u0456\u0437\u0434\u0435\u0439-\u0456\u0437\u0434\u0435\u0439
p3316
(lp3317
g3
asV\u043a\u04e9\u043f-\u043a\u04e9\u043f
p3318
(lp3319
g3
asV\u049b\u04b1\u0440\u0430\u0439\u0442-\u049b\u04b1\u0440\u0430\u0439\u0442
p3320
(lp3321
g3
asV\u0441y\u043c\u0435\u04a3-\u0441y\u043c\u0435\u04a3
p3322
(lp3323
g3
asV\u0448\u04b1\u0440-\u0448\u04b1\u0440
p3324
(lp3325
g3
asV\u0430\u0442\u0430\u043f-\u0430\u0442\u0430\u043f
p3326
(lp3327
g3
asV\u0435\u0440\u0442\u0435-\u0435\u0440\u0442\u0435
p3328
(lp3329
g3
asV\u0434\u04d9\u043b\u0434\u0443-\u0431\u04d9\u043b\u0434\u0443
p3330
(lp3331
g3
asV\u049b\u04b1\u0437-\u049b\u04b1\u0437
p3332
(lp3333
g3
asV\u0436\u044b\u0440\u0431\u044b\u04a3-\u0436\u044b\u0440\u0431\u044b\u04a3
p3334
(lp3335
g3
asV\u0431\u0430\u0440\u0430-\u0431\u0430\u0440\u0430
p3336
(lp3337
g3
asV\u0430\u0440\u0431\u0430\u04a3-\u0430\u0440\u0431\u0430\u04a3
p3338
(lp3339
g3
asV\u043a\u04e9\u0440\u0456\u0441\u0435-\u043a\u04e9\u0440\u0456\u0441\u0435
p3340
(lp3341
g3
asV\u0436\u0430\u0440\u0430-\u0436\u0430\u0440\u0430
p3342
(lp3343
g3
asV\u0434\u0456\u0440\u0434\u0435\u043a-\u0434\u0456\u0440\u0434\u0435\u043a
p3344
(lp3345
g3
asV\u044b\u0442\u044b\u043f-\u044b\u0442\u044b\u043f
p3346
(lp3347
g3
asV\u0434\u0430\u043b\u0431\u0430-\u0434\u04b1\u043b\u0431\u0430
p3348
(lp3349
g3
asV\u0434\u0430\u04a3-\u0434\u04b1\u04a3
p3350
(lp3351
g3
asV\u0441\u0430\u043b\u044b\u043f-\u0441\u0430\u043b\u044b\u043f
p3352
(lp3353
g3
asV\u0448\u043e\u0440\u0448\u044b\u043f-\u0448\u043e\u0440\u0448\u044b\u043f
p3354
(lp3355
g3
asV\u0431\u044b\u049b\u0441\u044b\u043f-\u0441\u044b\u049b\u0441\u044b\u043f
p3356
(lp3357
g3
asV\u0442y\u043a\u043f\u0456\u0440-\u0442y\u043a\u043f\u0456\u0440
p3358
(lp3359
g3
asV\u0431\u0456\u0440-\u0431\u0456\u0440
p3360
(lp3361
g3
asV\u0441\u0435\u043a\u0435\u04a3-\u0441\u0435\u043a\u0435\u04a3
p3362
(lp3363
g3
asV\u044b\u0440\u0448\u044b\u043f-\u044b\u0440\u0448\u044b\u043f
p3364
(lp3365
g3
asV\u043f\u0430\u0440\u0430-\u043f\u0430\u0440
p3366
(lp3367
g3
asV\u04b1\u0431\u0430\u043f-\u0448\u04b1\u0431\u0430\u043f
p3368
(lp3369
g3
asV\u049b\u0430\u0442-\u049b\u0430\u0442\u0442\u0430\u043f
p3370
(lp3371
g3
asV\u043ay\u0442\u0435-\u043ay\u0442\u0435
p3372
(lp3373
g3
asV\u043a\u04e9\u0436\u0435-\u043c\u04e9\u0436\u0435
p3374
(lp3375
g3
asV\u043c\u04d9\u04a3\u0433\u0456-\u0434\u04d9\u04a3\u0433\u0456
p3376
(lp3377
g3
asV\u0434\u04e9\u043a\u0435\u0439-\u0434\u04e9\u043a\u0435\u0439
p3378
(lp3379
g3
asV\u04d9\u043d\u0442\u0435\u043a-\u0442\u04d9\u043d\u0442\u0435\u043a
p3380
(lp3381
g3
asV\u0442y\u043f-\u0442\u04e9\u0440\u043a\u0456\u043d
p3382
(lp3383
g3
asV\u049b\u0430\u043b\u0442\u0430-\u049b\u0430\u043b\u0442\u0430\u049b
p3384
(lp3385
g3
asV\u043e\u0439\u043f\u0430\u04a3-\u043e\u0439\u043f\u0430\u04a3
p3386
(lp3387
g3
asV\u0436\u044b\u0440\u0442\u044b\u04a3-\u0436\u044b\u0440\u0442\u044b\u04a3
p3388
(lp3389
g3
asV\u0434\u043e\u0440\u0431\u0430-\u0434\u043e\u0440\u0431\u0430
p3390
(lp3391
g3
asV\u0430\u043f\u044b\u0440-\u0448y\u043f\u0456\u0440
p3392
(lp3393
g3
asV\u043e\u049b\u0443-\u043e\u049b\u0443
p3394
(lp3395
g3
asV\u0443\u044b\u0441-\u0443\u044b\u0441
p3396
(lp3397
g3
asV\u0448\u044b\u043c\u044b\u0440-\u0448\u044b\u043c\u044b\u0440
p3398
(lp3399
g3
asV\u043c\u044b\u04a3\u049b-\u043c\u044b\u04a3\u049b
p3400
(lp3401
g3
asV\u049b\u044b\u043b\u0442-\u049b\u044b\u043b\u0442
p3402
(lp3403
g3
asV\u04e9\u0437\u0434\u0456-\u04e9\u0437\u0456
p3404
(lp3405
g3
asV\u049b\u0443\u0442\u044b\u04a3-\u049b\u0443\u0442\u044b\u04a3
p3406
(lp3407
g3
asV\u044b\u0441\u0442\u044b\u049b-\u044b\u0441\u0442\u044b\u049b
p3408
(lp3409
g3
asV\u0448\u044b\u043b\u043f-\u0448\u044b\u043b\u043f
p3410
(lp3411
g3
asV\u0437\u043e\u0440\u0493\u0430-\u0437\u043e\u0440\u0493\u0430
p3412
(lp3413
g3
asV\u043e\u0440\u044b\u043d-\u043e\u0440\u043d\u044b\u043d\u0430
p3414
(lp3415
g3
asV\u043a\u0435\u0440\u0433\u0456\u043b\u0435\u0441\u0456\u043f-\u043a\u0435\u0440\u0433\u0456\u043b\u0435\u0441\u0456\u043f
p3416
(lp3417
g3
asV\u0442\u0430\u049b-\u0442\u0430\u049b
p3418
(lp3419
g3
asV\u0431\u0430\u0439-\u0431\u0430\u0439
p3420
(lp3421
g3
asV\u0434\u0430\u043b\u0430\u049b-\u0434\u0430\u043b\u0430\u049b
p3422
(lp3423
g3
asV\u0442\u0430\u0440\u0430\u043c-\u0442\u0430\u0440\u0430\u043c
p3424
(lp3425
g3
asV\u0430\u043b\u0430\u049b\u0430\u043d\u0434\u0430\u0439-\u0430\u043b\u0430\u049b\u0430\u043d\u0434\u0430\u0439
p3426
(lp3427
g3
asV\u0434\u043e\u0440\u0431\u0430\u04a3-\u0434\u043e\u0440\u0431\u0430\u04a3
p3428
(lp3429
g3
asV\u0441y\u0437\u0433\u0456\u043b\u0435\u0439-\u0441y\u0437\u0433\u0456\u043b\u0435\u0439
p3430
(lp3431
g3
asV\u0431\u04b1\u0440\u0430\u043b\u0430\u04a3-\u0431\u04b1\u0440\u0430\u043b\u0430\u04a3
p3432
(lp3433
g3
asV\u049b\u0430\u049b\u0430\u04a3-\u0441\u04b1\u049b\u0430\u04a3
p3434
(lp3435
g3
asV\u0434\u0443-\u0434\u0443\u043c\u0430\u043d
p3436
(lp3437
g3
asV\u0431\u04b1\u0440\u049b-\u0431\u04b1\u0440\u049b
p3438
(lp3439
g3
asV\u0431\u0430\u044f-\u0448\u0430\u044f
p3440
(lp3441
g3
asV\u049b\u0443\u0440\u0430\u0439-\u0441\u0443\u0440\u0430\u0439
p3442
(lp3443
g3
asV\u0431\u0430\u0441\u0430\u0442-\u0431\u0430\u0441\u0430\u0442
p3444
(lp3445
g3
asV\u049b\u04b1\u043b\u0442-\u049b\u04b1\u043b\u0442
p3446
(lp3447
g3
asV\u0430\u0441\u0430\u0440-\u0430\u0441\u043f\u0430\u0441
p3448
(lp3449
g3
asV\u049b\u0430\u0440\u0448-\u049b\u0430\u0440\u0448
p3450
(lp3451
g3
asVy\u0441\u0442\u0456-y\u0441\u0442\u0456\u043d\u0435
p3452
(lp3453
g3
asV\u0442\u0438\u043f\u044b\u04a3-\u0442\u0438\u043f\u044b\u04a3
p3454
(lp3455
g3
asV\u0442\u04b1\u0441-\u0442\u04b1\u0441\u0442\u0430\u043d
p3456
(lp3457
g3
asV\u0442y\u0440-\u0442y\u0440\u0456
p3458
(lp3459
g3
asV\u043a\u04e9\u0448\u0435-\u043a\u04e9\u0448\u0435
p3460
(lp3461
g3
asV\u0431\u0430\u0442\u044b\u0440-\u0431\u04b1\u0442\u044b\u0440
p3462
(lp3463
g3
asV\u0436\u0435\u043b\u043a-\u0436\u0435\u043b\u043a
p3464
(lp3465
g3
asV\u043e\u043f-\u043e\u04a3\u0430\u0448\u0430
p3466
(lp3467
g3
asV\u049b\u0430\u0434\u0430\u0443-\u049b\u0430\u0434\u0430\u0443
p3468
(lp3469
g3
asV\u049b\u0430\u043f-\u049b\u0430\u0442\u0442\u044b
p3470
(lp3471
g3
asV\u0431\u0430\u043b\u0434\u044b\u0440-\u0431\u0430\u043b\u0434\u044b\u0440
p3472
(lp3473
g3
asVy\u0439\u043c\u0435-y\u0439
p3474
(lp3475
g3
asV\u0431\u04b1\u043b\u0434\u044b\u0440\u0430\u043f-\u0431\u04b1\u043b\u0434\u044b\u0440\u0430\u043f
p3476
(lp3477
g3
asV\u044b\u0441-\u044b\u0441
p3478
(lp3479
g3
asV\u0436\u044b\u043b\u0430\u043f-\u0436\u044b\u043b\u0430\u043f
p3480
(lp3481
g3
asV\u0430\u043b\u0430\u043c-c\u0430\u043b\u0430\u043c
p3482
(lp3483
g3
asV\u043a\u0456\u0448-\u043a\u0456\u0448
p3484
(lp3485
g3
asV\u0441\u0435\u043f-\u0441\u0435\u0440\u0433\u0435\u043a
p3486
(lp3487
g3
asV\u049b\u043e\u043f\u0430\u04a3-\u049b\u043e\u043f\u0430\u04a3
p3488
(lp3489
g3
asV\u0430\u0431\u044b\u043b-\u0441\u0430\u0431\u044b\u043b
p3490
(lp3491
g3
asV\u043a\u0456\u0448-\u043a\u0456\u0448\u0442\u0435
p3492
(lp3493
g3
asV\u0442\u044b\u043c-\u0442\u044b\u0440\u044b\u0441
p3494
(lp3495
g3
asV\u043c\u04e9\u043b\u0442\u0435\u04a3-\u043c\u04e9\u043b\u0442\u0435\u04a3
p3496
(lp3497
g3
asV\u043c\u044b\u049b\u0442\u044b-\u043c\u044b\u049b\u0442\u044b
p3498
(lp3499
g3
asV\u0431\u0430\u0493\u0436\u0430\u04a3-\u0431\u0430\u0493\u0436\u0430\u04a3
p3500
(lp3501
g3
asV\u044b\u043f-\u044b\u049b\u0448\u0430\u043c
p3502
(lp3503
g3
asV\u043e\u0440\u0430\u043c-\u043e\u0440\u0430\u043c
p3504
(lp3505
g3
asV\u0442\u0430\u043b\u0430\u0439-\u0442\u0430\u043b\u0430\u0439
p3506
(lp3507
g3
asV\u043c\u04d9\u0442-\u043c\u04d9\u0442
p3508
(lp3509
g3
asV\u0431\u0456\u0440-\u0431\u0456\u0440\u0456\u043d
p3510
(lp3511
g3
asV\u043a\u0456\u043f-\u043a\u0456\u0448\u043a\u0435\u043d\u0442\u0430\u0439
p3512
(lp3513
g3
asV\u0442\u044b\u0440\u049b-\u0442\u044b\u0440\u049b
p3514
(lp3515
g3
asV\u043c\u044b\u0440\u0441-\u043c\u044b\u0440\u0441
p3516
(lp3517
g3
asV\u04b1\u043b\u043c\u0430-\u0436\u04b1\u043b\u043c\u0430
p3518
(lp3519
g3
asV\u0448\u0430\u049b\u044b\u043b-\u0448\u0430\u049b\u044b\u043b
p3520
(lp3521
g3
asV\u0430\u0440\u043f\u044b\u043b-\u0442\u0430\u0440\u043f\u044b\u043b
p3522
(lp3523
g3
asV\u04e9\u0437\u0456\u043d\u0435\u043d-\u04e9\u0437\u0456
p3524
(lp3525
g3
asV\u0430\u0442\u0430\u043b\u044b-\u0430\u0442\u0430\u043b\u044b
p3526
(lp3527
g3
asV\u043a\u0435\u043a\u0435\u04a3-\u0441\u0435\u043a\u0435\u04a3
p3528
(lp3529
g3
asV\u049b\u0430\u0439\u049b\u0430\u04a3-\u049b\u0430\u0439\u049b\u0430\u04a3
p3530
(lp3531
g3
asV\u0435\u0440\u0435\u043a-\u0441\u0435\u0440\u0435\u043a
p3532
(lp3533
g3
asV\u04d9\u0437\u0435\u0440-\u043c\u04d9\u0437\u0435\u0440
p3534
(lp3535
g3
asV\u043e\u043d\u0434\u0430\u0439-\u043e\u043d\u0434\u0430\u0439
p3536
(lp3537
g3
asV\u04d9\u0440\u0435\u04a3-\u04d9\u0440\u0435\u04a3
p3538
(lp3539
g3
asV\u0436\u0430\u043f-\u0436\u0430\u043b\u0442\u044b\u0440
p3540
(lp3541
g3
asV\u0436\u0435\u043d\u0442\u0435\u043a-\u0436\u0435\u043d\u0442\u0435\u043a
p3542
(lp3543
g3
asV\u0442\u0456\u043f-\u0442\u0456\u043a
p3544
(lp3545
g3
asV\u049b\u043e\u0436\u0430\u049b-\u049b\u043e\u0436\u0430\u049b
p3546
(lp3547
g3
asV\u049b\u04b1\u0440\u0434\u0430\u043d-\u049b\u04b1\u0440
p3548
(lp3549
g3
asV\u0442\u04b1\u043f-\u0442\u04b1\u0442\u0430\u0441
p3550
(lp3551
g3
asV\u0436\u0435\u043c\u0442\u0456\u0440-\u0436\u0435\u043c\u0442\u0456\u0440
p3552
(lp3553
g3
asV\u0437\u044b\u0440\u049b-\u0437\u044b\u0440\u049b
p3554
(lp3555
g3
asV\u0448\u043e\u0448\u0430\u0439\u044b\u043f-\u0448\u043e\u0448\u0430\u0439\u044b\u043f
p3556
(lp3557
g3
asV\u0441\u044b\u043f-\u0441\u0438\u043f\u0430\u04a3
p3558
(lp3559
g3
asV\u04d9\u043b\u0442\u0456\u0440\u0435\u043a\u0442\u0435\u043f-\u0442\u04d9\u043b\u0442\u0456\u0440\u0435\u043a\u0442\u0435\u043f
p3560
(lp3561
g3
asV\u0441\u043e\u049b\u0442\u0430\u0443\u044b\u043b\u0434\u0430\u0439-\u0441\u043e\u049b\u0442\u0430\u0443\u044b\u043b\u0434\u0430\u0439
p3562
(lp3563
g3
asV\u049b\u0430\u0439\u0434\u0430\u0493\u044b-\u0436\u0430\u0439\u0434\u0430\u0493\u044b
p3564
(lp3565
g3
asV\u0456\u043d\u0434\u0456\u0433\u0435\u0448\u0442\u0435\u043d-\u0456\u043d\u0434\u0456\u0433\u0435\u0448\u043a\u0435
p3566
(lp3567
g3
asV\u043c\u0456\u043d\u0433\u0435\u0441\u0442\u0456\u0440\u0456\u043f-\u043c\u0456\u043d\u0433\u0435\u0441\u0442\u0456\u0440\u0456\u043f
p3568
(lp3569
g3
asV\u0435\u0440-\u043c\u0435\u0440
p3570
(lp3571
g3
asV\u049b\u043e\u043c\u043f-\u049b\u043e\u043c\u043f
p3572
(lp3573
g3
asV\u0436\u044b\u043b\u044b-\u0436\u044b\u043b\u044b
p3574
(lp3575
g3
asV\u044b\u04a3\u0441\u044b\u0437-\u0434\u044b\u04a3\u0441\u044b\u0437
p3576
(lp3577
g3
asV\u0448\u04e9\u043f-\u0448\u04e9\u043f
p3578
(lp3579
g3
asV\u043a\u04e9\u0440\u0456\u043d\u0435\u0440-\u043a\u04e9\u0440\u0456\u043d\u0431\u0435\u0441
p3580
(lp3581
g3
asV\u0431\u04e9\u0440\u0442\u043f\u0435-\u0431\u04e9\u0440\u0442\u043f\u0435
p3582
(lp3583
g3
asV\u0442\u0456\u043b\u0456\u043c-\u0442\u0456\u043b\u0456\u043c
p3584
(lp3585
g3
asV\u0441\u0430\u0442\u04b1\u0440-\u0441\u04b1\u0442\u044b\u0440
p3586
(lp3587
g3
asV\u04e9\u04a3\u043a-\u04e9\u04a3\u043a
p3588
(lp3589
g3
asV\u043a\u0456\u0440\u0456\u04a3-\u043c\u044b\u0440\u044b\u04a3
p3590
(lp3591
g3
asV\u049b\u043e\u0439-\u049b\u043e\u0439
p3592
(lp3593
g3
asV\u044b\u04a3\u049b-\u044b\u04a3\u049b
p3594
(lp3595
g3
asVy\u0440\u043c\u0435\u043a-y\u0440\u043c\u0435\u043a
p3596
(lp3597
g3
asV\u0436\u044b\u043b\u0493\u0430-\u0436\u044b\u043b\u0493\u0430
p3598
(lp3599
g3
asV\u0430\u0443\u044b\u049b-\u0430\u0443\u044b\u049b
p3600
(lp3601
g3
asV\u0430\u043f\u0430\u043b\u0430\u049b-\u0441\u0430\u043f\u0430\u043b\u0430\u049b
p3602
(lp3603
g3
asV\u049b\u0430\u0437\u044b\u043b\u044b\u043f-\u049b\u0430\u0437\u044b\u043b\u044b\u043f
p3604
(lp3605
g3
asV\u0448\u0430\u0440\u0442\u043f\u0430-\u0448\u04b1\u0440\u0442
p3606
(lp3607
g3
asV\u0430\u043f\u044b\u0440-\u0442\u04b1\u043f\u044b\u0440
p3608
(lp3609
g3
asV\u0436\u0456\u043f-\u0436\u0438\u0456
p3610
(lp3611
g3
asV\u0436y\u0440\u0456\u043f-\u0436y\u0440\u0456\u043f
p3612
(lp3613
g3
asV\u043a\u0435\u0440\u0434\u0435\u04a3-\u043a\u0435\u0440\u0434\u0435\u04a3
p3614
(lp3615
g3
asV\u0435\u0434\u0456\u0440\u0435\u0439\u0435-\u0435\u0434\u0456\u0440\u0435\u0439\u0435
p3616
(lp3617
g3
asV\u043c\u0438\u049b\u044b-\u0441\u0438\u049b\u044b
p3618
(lp3619
g3
asV\u0448\u0430\u04a3\u044b\u0440\u0430\u049b\u0442\u0430\u0439-\u0448\u0430\u04a3\u044b\u0440\u0430\u049b\u0442\u0430\u0439
p3620
(lp3621
g3
asV\u0434\u043e\u043c\u0430\u043b\u0430\u049b-\u0434\u043e\u043c\u0430\u043b\u0430\u049b
p3622
(lp3623
g3
asV\u0448\u0430\u043d\u0434\u044b\u043f-\u0448\u0430\u043d\u0434\u044b\u043f
p3624
(lp3625
g3
asV\u0430\u0493\u0430\u043b-\u0436\u0430\u0493\u0430\u043b
p3626
(lp3627
g3
asV\u043f\u0430\u0448\u0430\u049b-\u043f\u0430\u0448\u0430\u049b
p3628
(lp3629
g3
ag3
asV\u0436\u0430\u043f-\u0436\u0430\u0441
p3630
(lp3631
g3
asV\u043b\u043e\u049b\u0441\u044b\u043f-\u043b\u043e\u049b\u0441\u044b\u043f
p3632
(lp3633
g3
asV\u0441\u04b1\u043f-\u0441\u04b1\u0440
p3634
(lp3635
g3
asV\u043ay\u043b\u0456\u04a3-\u043ay\u043b\u0456\u04a3
p3636
(lp3637
g3
asV\u0430\u043b\u0434\u044b\u0440-\u0441\u0430\u043b\u0434\u044b\u0440
p3638
(lp3639
g3
asV\u044b\u0440\u0441-\u044b\u0440\u0441
p3640
(lp3641
g3
asV\u049b\u044b\u0437-\u049b\u044b\u0437
p3642
(lp3643
g3
asV\u0430\u04a3\u0434\u0430\u043f-\u0430\u04a3\u0434\u0430\u043f
p3644
(lp3645
g3
asV\u043e\u0439\u043b\u0430\u0439-\u043e\u0439\u043b\u0430\u0439
p3646
(lp3647
g3
asV\u043f\u04d9\u043b\u0435-\u0441\u04d9\u043b\u0435
p3648
(lp3649
g3
asV\u0430\u043b\u0430-\u0441\u0430\u043b\u0430
p3650
(lp3651
g3
asV\u0431\u04b1\u043b-\u0431\u04b1\u043b
p3652
(lp3653
g3
asV\u0448\u0430\u0440\u0442-\u0448\u04b1\u0440\u0442
p3654
(lp3655
g3
asV\u049b\u0430\u043f-\u049b\u0430\u043f
p3656
(lp3657
g3
asV\u0430\u0441\u0443\u0434\u0430-\u0430\u0441\u0443
p3658
(lp3659
g3
asV\u0436\u0430\u043b\u0493\u0430\u0443-\u0436\u0430\u043b\u0493\u0430\u0443
p3660
(lp3661
g3
asV\u049b\u04b1\u043f-\u049b\u0443
p3662
(lp3663
g3
asV\u043a\u0456\u043b\u043a-\u043a\u0456\u043b\u043a
p3664
(lp3665
g3
asV\u049b\u044b\u043f-\u049b\u044b\u0441\u049b\u0430
p3666
(lp3667
g3
asV\u0448\u0456\u04a3\u043a-\u0448\u0456\u04a3\u043a
p3668
(lp3669
g3
asV\u0437\u04d9\u0443\u043b\u0456\u043c-\u0437\u04d9\u0443\u043b\u0456\u043c
p3670
(lp3671
g3
asV\u049b\u043e\u0439\u044b\u043b\u0430-\u049b\u043e\u0439\u044b\u043b\u0430
p3672
(lp3673
g3
asV\u0431\u0430\u049b\u044b\u0440\u0430-\u0431\u0430\u049b\u044b\u0440\u0430
p3674
(lp3675
g3
asV\u04e9\u0437-\u04e9\u0437\u0456\u043d\u0435
p3676
(lp3677
g3
asV\u0448\u044b\u0442\u044b\u0440-\u0448\u044b\u0442\u044b\u0440
p3678
(lp3679
g3
asV\u044b\u0434\u044b\u0440\u0430\u043f-\u044b\u0434\u044b\u0440\u0430\u043f
p3680
(lp3681
g3
asV\u0442\u04d9\u0439-\u0442\u04d9\u0439\u043b\u04d9
p3682
(lp3683
g3
asV\u0441\u043e\u0439\u0434\u0438\u044b\u043f-\u0441\u043e\u0439\u0434\u0438\u044b\u043f
p3684
(lp3685
g3
asV\u043ay\u04a3\u0433\u0456\u0440-\u043ay\u04a3\u0433\u0456\u0440
p3686
(lp3687
g3
asV\u049b\u043e\u043b\u0434\u044b-\u049b\u043e\u043b\u044b\u043d\u0430
p3688
(lp3689
g3
asV\u0442\u04b1\u043f-\u0442\u04b1\u0449\u044b
p3690
(lp3691
g3
asV\u0442\u0435\u043a\u043f\u0456\u0448-\u0442\u0435\u043a\u043f\u0456\u0448
p3692
(lp3693
g3
asV\u0442\u0430\u0439\u044b\u043d\u0448\u0430\u0434\u0430\u0439-\u0442\u0430\u0439\u044b\u043d\u0448\u0430\u0434\u0430\u0439
p3694
(lp3695
g3
asV\u0431\u0443\u0434\u0430-\u0431\u0443\u0434\u0430
p3696
(lp3697
g3
asV\u044b\u0440\u0493\u0430\u043f-\u0436\u044b\u0440\u0493\u0430\u043f
p3698
(lp3699
g3
asV\u0436y\u0440-\u0436y\u0440\u043b\u0435
p3700
(lp3701
g3
asV\u049b\u04b1\u0436-\u049b\u04b1\u0436
p3702
(lp3703
g3
asV\u0431\u0430\u0442\u043f\u0430\u043d-\u0431\u0430\u0442\u043f\u0430\u043d
p3704
(lp3705
g3
asV\u043e\u043f-\u043e\u04a3\u0430\u0439
p3706
(lp3707
g3
asV\u0431\u043e\u0440\u0441-\u0431\u043e\u0440\u0441
p3708
(lp3709
g3
asV\u0431\u04e9\u043b\u0456\u043c-\u0431\u04e9\u043b\u0456\u043c
p3710
(lp3711
g3
asV\u049b\u0430\u043b\u0442\u0430\u04a3-\u049b\u04b1\u043b\u0442\u0430\u04a3
p3712
(lp3713
g3
asV\u04e9\u043f-\u04e9\u0442\u0456\u0440\u0456\u043a
p3714
(lp3715
g3
asV\u0434\u0435\u0434\u0435\u043a-\u0434\u0435\u0434\u0435\u043a
p3716
(lp3717
g3
asV\u0431\u04b1\u043b\u0493\u0430\u04a3-\u0431\u04b1\u043b\u0493\u0430\u04a3
p3718
(lp3719
g3
asV\u043a\u0435\u0437\u0435\u043a-\u043a\u0435\u0437\u0435\u043a
p3720
(lp3721
g3
asV\u049b\u0430\u0439-\u049b\u0430\u0439
p3722
(lp3723
g3
asV\u0431\u0443\u0430\u0442-\u0431\u0443\u0430\u0442
p3724
(lp3725
g3
asV\u0431\u0430\u043d\u0434\u044b-\u0441\u0430\u043d\u0434\u044b
p3726
(lp3727
g3
asV\u0442y\u043a-\u0442y\u043a
p3728
(lp3729
g3
asV\u0442\u044b\u0448\u0442\u0430\u04a3-\u0442\u044b\u0448\u0442\u0430\u04a3
p3730
(lp3731
g3
asV\u044b\u043f-\u044b\u04a3\u0493\u0430\u0439\u043b\u044b
p3732
(lp3733
g3
asV\u0448\u0430\u049b\u0430-\u0448\u0430\u049b\u0430
p3734
(lp3735
g3
asV\u049b\u043e\u0439\u049b\u0430\u04a3-\u049b\u043e\u0439\u049b\u0430\u04a3
p3736
(lp3737
g3
asV\u049b\u0430\u043f-\u049b\u0430\u043b\u0442\u0430
p3738
(lp3739
g3
asV\u0436\u0430\u0437\u044b\u049b\u0441\u044b\u0437\u0434\u0430\u043d-\u0436\u0430\u0437\u044b\u049b\u0441\u044b\u0437
p3740
(lp3741
g3
asV\u0436\u0430\u043f\u0430\u043b\u0430\u049b-\u0436\u0430\u043f\u0430\u043b\u0430\u049b
p3742
(lp3743
g3
asV\u0441\u0430\u043b-\u0441\u0430\u043b
p3744
(lp3745
g3
asV\u044b\u0440\u044b\u04a3-\u0436\u044b\u0440\u044b\u04a3
p3746
(lp3747
g3
asV\u049b\u043e\u049b\u044b-\u0441\u043e\u049b\u044b
p3748
(lp3749
g3
asV\u0448\u0430\u043f\u0448\u0430\u04a3-\u0448\u0430\u043f\u0448\u0430\u04a3
p3750
(lp3751
g3
asV\u043e\u043f\u044b\u043b-\u0442\u043e\u043f\u044b\u043b
p3752
(lp3753
g3
asV\u04e9\u0437-\u04e9\u0437\u0456\u043d
p3754
(lp3755
g3
asV\u0434\u04b1\u043f-\u0434\u04b1\u0440\u044b\u0441
p3756
(lp3757
g3
asV\u0442\u04b1\u043f-\u0442\u0443\u0440\u0430
p3758
(lp3759
g3
asV\u0436\u044b\u043b\u043c\u0430-\u0436\u044b\u043b
p3760
(lp3761
g3
asV\u0442\u0435\u043b\u0456\u043c-\u0442\u0435\u043b\u0456\u043c
p3762
(lp3763
g3
asV\u0441\u0430\u0439-\u0441\u0430\u0439
p3764
(lp3765
g3
asV\u0436\u0430\u043f-\u0436\u0430\u0440\u0430\u0441\u044b\u043c\u0434\u044b
p3766
(lp3767
g3
asV\u0442\u0430\u0441\u0442\u0430\u0439-\u0442\u0430\u0441\u0442\u0430\u0439
p3768
(lp3769
g3
asV\u043f\u0456\u0441\u0456\u043f-\u043f\u0456\u0441\u0456\u043f
p3770
(lp3771
g3
asV\u043d\u0430\u049b\u0430\u049b\u0442\u0430\u043d-\u043d\u0430\u049b\u0430\u049b
p3772
(lp3773
g3
asV\u0436\u0430\u0440\u0430-\u043c\u0430\u0440\u0430
p3774
(lp3775
g3
asV\u0430\u0442\u0430\u049b-\u0448\u0430\u0442\u0430\u049b
p3776
(lp3777
g3
asV\u0436\u0430\u0439\u0440\u0430\u04a3-\u0436\u0430\u0439\u0440\u0430\u04a3
p3778
(lp3779
g3
asV\u043c\u0430\u0439-\u043c\u0430\u0439
p3780
(lp3781
g3
asV\u0442\u0430\u0493\u044b-\u0442\u0430\u0493\u044b
p3782
(lp3783
g3
asV\u0441\u04b1\u0440\u0430\u0439-\u0441\u04b1\u0440\u0430\u0439
p3784
(lp3785
g3
asV\u0434\u0430\u043b\u0431\u0430\u04a3-\u0434\u04b1\u043b\u0431\u0430\u04a3
p3786
(lp3787
g3
asV\u04e9\u0437\u0456\u04a3\u0434\u0456-\u04e9\u0437\u0456\u04a3
p3788
(lp3789
g3
asV\u0430\u0493\u0430\u0440\u0430\u04a3-\u0430\u0493\u0430\u0440\u0430\u04a3
p3790
(lp3791
g3
asV\u0435\u043b\u0431\u0435\u0441\u0456\u043f-\u0441\u0435\u043b\u0431\u0435\u0441\u0456\u043f
p3792
(lp3793
g3
asV\u0448\u0430\u0439\u049b\u0430\u043f-\u0448\u0430\u0439\u049b\u0430\u043f
p3794
(lp3795
g3
asV\u049b\u0430\u043f\u0448\u044b\u049b-\u049b\u0430\u043f\u0448\u044b\u049b
p3796
(lp3797
g3
asV\u049b\u0430\u049b\u044b-\u0441\u043e\u049b\u044b
p3798
(lp3799
g3
asV\u0441\u043e\u044f\u0443-\u0441\u043e\u044f\u0443
p3800
(lp3801
g3
asV\u049b\u0438\u049b-\u049b\u0438\u049b
p3802
(lp3803
g3
asV\u0442\u0430\u043f-\u0442\u0430\u043f\u0430\u043b
p3804
(lp3805
g3
asV\u0434\u0456\u04a3\u0434\u0435\u0439-\u0434\u0456\u04a3\u0434\u0435\u0439
p3806
(lp3807
g3
asV\u0431\u04d9\u0440\u0456-\u0431\u04d9\u0440\u0456
p3808
(lp3809
g3
asV\u0442\u0430\u0441\u044b\u0440-\u0442\u04b1\u0441\u044b\u0440
p3810
(lp3811
g3
asV\u0442\u044b\u043f-\u0442\u0438\u044f\u043d\u0430\u049b\u0442\u044b
p3812
(lp3813
g3
asV\u043c\u04b1\u043f-\u043c\u04b1\u0437\u0434\u0430\u0439
p3814
(lp3815
g3
asV\u0434y\u043c\u0431\u0456\u0440-\u0434y\u043c\u0431\u0456\u0440
p3816
(lp3817
g3
asV\u0434y\u0440\u043c\u0435\u043a-\u0434y\u0440\u043c\u0435\u043a
p3818
(lp3819
g3
asV\u0442\u0438\u0456\u043c\u0434\u0456-\u0442\u0438\u0456\u043c\u0441\u0456\u0437
p3820
(lp3821
g3
asVy\u0440\u0433\u0456\u0437\u0456\u043f-y\u0440\u0433\u0456\u0437\u0456\u043f
p3822
(lp3823
g3
asV\u049b\u0443\u0430\u043d\u0430-\u049b\u0443\u0430\u043d\u0430
p3824
(lp3825
g3
asV\u0434y\u0440\u043a\u0456\u043d-\u0434y\u0440\u043a\u0456\u043d
p3826
(lp3827
g3
asV\u0442\u0456\u043f\u04d9\u0439-\u0442\u0456\u043f\u04d9\u0439
p3828
(lp3829
g3
asV\u04d9\u04a3\u0433\u0456\u043b-\u0448\u04d9\u04a3\u0433\u0456\u043b
p3830
(lp3831
g3
asV\u049b\u0438\u049b\u044b-\u0436\u0438\u049b\u044b
p3832
(lp3833
g3
asV\u04b1\u0437\u044b\u043d-\u04b1\u0437\u044b\u043d
p3834
(lp3835
g3
asV\u0441\u0435\u043b\u0442\u0438\u0456\u0441\u0456\u043f-\u0441\u0435\u043b\u0442\u0438\u0456\u0441\u0456\u043f
p3836
(lp3837
g3
asV\u0435\u04a3\u0456\u0441-\u0435\u04a3\u0456\u0441
p3838
(lp3839
g3
asV\u049b\u0430\u0440\u0430\u043f-\u049b\u0430\u0440\u0430\u043f
p3840
(lp3841
g3
asV\u049b\u044b\u0440\u0442\u044b\u04a3-\u0441\u044b\u0440\u0442\u044b\u04a3
p3842
(lp3843
g3
as.