(dp0
Vsha
p1
(lp2
V\u0436, \u0437 , \u043b
p3
aNasVel3
p4
(lp5
V\u043c, \u043d, \u04a3
p6
aV1
p7
asVus2
p8
(lp9
V\u0443, \u0438, \u0439,\u0440
p10
ag7
asVsy4
p11
(lp12
V\u0431, \u0432, \u0433, \u0434, \u043f, \u0442, \u043a, \u0444, \u0448, \u0441, \u049b, \u0445, \u0447, \u0446, \u04bb
p13
ag7
asVsn6
p14
(lp15
V\u04d9,\u04e9,\u04af,\u0456,\u0435,\u0430,\u044b,\u043e,\u044d,\u044f,\u044e
p16
aNasVsn7
p17
(lp18
V\u0443, \u0438, \u0439,\u0440
p19
aNasVsn4
p20
(lp21
V\u0431, \u0432, \u0433, \u0434, \u043f, \u0442, \u043a, \u0444, \u0448, \u0441, \u049b, \u0445, \u0447, \u0446, \u04bb
p22
ag7
asVsn5
p23
(lp24
V\u0436, \u0437 , \u043b
p25
ag7
asVsn2
p26
(lp27
V\u0443, \u0438, \u0439,\u0440
p28
ag7
asVsn3
p29
(lp30
V\u043c, \u043d, \u04a3
p31
ag7
asVsy5
p32
(lp33
V\u0436, \u0437 , \u043b
p34
ag7
asVsn1
p35
(lp36
V\u04d9,\u04e9,\u04af,\u0456,\u0435,\u0430,\u044b,\u043e,\u044d,\u044f,\u044e
p37
ag7
asVsy9
p38
(lp39
V\u0431, \u0432, \u0433, \u0434, \u043f, \u0442, \u043a, \u0444, \u0448, \u0441, \u049b, \u0445, \u0447, \u0446, \u04bb
p40
aNasVsy8
p41
(lp42
V\u043c, \u043d, \u04a3
p43
aNasVsn8
p44
(lp45
V\u043c, \u043d, \u04a3
p46
aNasVsn9
p47
(lp48
V\u0431, \u0432, \u0433, \u0434, \u043f, \u0442, \u043a, \u0444, \u0448, \u0441, \u049b, \u0445, \u0447, \u0446, \u04bb
p49
aNasVet2
p50
(lp51
V\u04bb,\u04a3,\u0493,\u04b1,\u043d,\u0433,\u049b,\u0446,\u043a,\u043d,\u0433,\u0448,\u0449,\u0437,\u0445,\u0444,\u0432,\u043f,\u0440,\u043b,\u0434,\u0436,\u0447,\u0441,\u043c,\u0442,\u0431,\u0439
p52
ag7
asVet3
p53
(lp54
V\u04bb,\u04a3,\u0493,\u04b1,\u043d,\u0433,\u049b,\u0446,\u043a,\u043d,\u0433,\u0448,\u0449,\u0437,\u0445,\u0444,\u0432,\u043f,\u0440,\u043b,\u0434,\u0436,\u0447,\u0441,\u043c,\u0442,\u0431,\u0439
p55
ag7
asVsh2
p56
(lp57
V\u0443, \u0438, \u0439,\u0440
p58
ag7
asVet1
p59
(lp60
V\u04bb,\u04a3,\u0493,\u04b1,\u043d,\u0433,\u049b,\u0446,\u043a,\u043d,\u0433,\u0448,\u0449,\u0437,\u0445,\u0444,\u0432,\u043f,\u0440,\u043b,\u0434,\u0436,\u0447,\u0441,\u043c,\u0442,\u0431,\u0439
p61
ag7
asVet6
p62
(lp63
V\u04bb,\u04a3,\u0493,\u04b1,\u043d,\u0433,\u049b,\u0446,\u043a,\u043d,\u0433,\u0448,\u0449,\u0437,\u0445,\u0444,\u0432,\u043f,\u0440,\u043b,\u0434,\u0436,\u0447,\u0441,\u043c,\u0442,\u0431,\u0439
p64
aV
p65
asVet7
p66
(lp67
V\u04bb,\u04a3,\u0493,\u04b1,\u043d,\u0433,\u049b,\u0446,\u043a,\u043d,\u0433,\u0448,\u0449,\u0437,\u0445,\u0444,\u0432,\u043f,\u0440,\u043b,\u0434,\u0436,\u0447,\u0441,\u043c,\u0442,\u0431,\u0439
p68
ag65
asVet4
p69
(lp70
V\u04d9,\u0456,\u04af,\u04b1,\u04e9,\u0443,\u0435,\u044b,\u0430,\u043e,\u044d,\u044f,\u0438,\u044e
p71
ag7
asVet5
p72
(lp73
V\u04bb,\u04a3,\u0493,\u04b1,\u043d,\u0433,\u049b,\u0446,\u043a,\u043d,\u0433,\u0448,\u0449,\u0437,\u0445,\u0444,\u0432,\u043f,\u0440,\u043b,\u0434,\u0436,\u0447,\u0441,\u043c,\u0442,\u0431,\u0439
p74
aNasVsh8
p75
(lp76
V\u043c, \u043d, \u04a3
p77
aNasVsh9
p78
(lp79
V\u0431, \u0432, \u0433, \u0434, \u043f, \u0442, \u043a, \u0444, \u0448, \u0441, \u049b, \u0445, \u0447, \u0446, \u04bb
p80
aNasVet8
p81
(lp82
V\u04d9,\u0456,\u04af,\u04b1,\u04e9,\u0443,\u0435,\u044b,\u0430,\u043e,\u044d,\u044f,\u0438,\u044e
p83
aNasVela
p84
(lp85
V\u0436, \u0437 , \u043b
p86
aNasVzta
p87
(lp88
V\u0436, \u0437 , \u043b, \u044c
p89
aNasVel8
p90
(lp91
V\u043c, \u043d, \u04a3
p92
aNasVel4
p93
(lp94
V\u0431, \u0432, \u0433, \u0434, \u043f, \u0442, \u043a, \u0444, \u0448, \u0441, \u049b, \u0445, \u0447, \u0446, \u04bb
p95
ag7
asVel9
p96
(lp97
V\u0431, \u0432, \u0433, \u0434, \u043f, \u0442, \u043a, \u0444, \u0448, \u0441, \u049b, \u0445, \u0447, \u0446, \u04bb
p98
aNasVzt9
p99
(lp100
V\u0431, \u0432, \u0433, \u0434, \u043f, \u0442, \u043a, \u0444, \u0448, \u0441, \u049b, \u0445, \u0447, \u0446, \u04bb
p101
aNasVus8
p102
(lp103
V\u043c, \u043d, \u04a3
p104
aNasVzt8
p105
(lp106
V\u043c, \u043d, \u04a3
p107
aNasVod8
p108
(lp109
V\u043c, \u043d, \u04a3
p110
aNasVod9
p111
(lp112
V\u0431, \u0432, \u0433, \u0434, \u043f, \u0442, \u043a, \u0444, \u0448, \u0441, \u049b, \u0445, \u0447, \u0446, \u04bb
p113
aNasVsya
p114
(lp115
V\u0436, \u0437 , \u043b
p116
aNasVel2
p117
(lp118
V\u0443, \u0438, \u0439,\u0440
p119
ag7
asVsh1
p120
(lp121
V\u04d9,\u04e9,\u04af,\u0456,\u0435,\u0430,\u044b,\u043e,\u044d,\u044f,\u044e
p122
ag7
asVod1
p123
(lp124
V\u04d9,\u04e9,\u04af,\u0456,\u0435,\u0430,\u044b,\u043e,\u044d,\u044f,\u044e
p125
ag7
asVod2
p126
(lp127
V\u0443, \u0438, \u0439,\u0440
p128
ag7
asVod3
p129
(lp130
V\u043c, \u043d, \u04a3
p131
ag7
asVod4
p132
(lp133
V\u0431, \u0432, \u0433, \u0434, \u043f, \u0442, \u043a, \u0444, \u0448, \u0441, \u049b, \u0445, \u0447, \u0446, \u04bb
p134
ag7
asVod6
p135
(lp136
V\u04d9,\u04e9,\u04af,\u0456,\u0435,\u0430,\u044b,\u043e,\u044d,\u044f,\u044e
p137
aNasVod7
p138
(lp139
V\u0443, \u0438, \u0439,\u0440
p140
aNasVsy6
p141
(lp142
V\u04d9,\u04e9,\u04af,\u0456,\u0435,\u0430,\u044b,\u043e,\u044d,\u044f,\u044e
p143
aNasVsna
p144
(lp145
V\u0436, \u0437 , \u043b
p146
aNasVsh3
p147
(lp148
V\u043c, \u043d, \u04a3
p149
ag7
asVel5
p150
(lp151
V\u0436, \u0437 , \u043b
p152
ag7
asVzt4
p153
(lp154
V\u0431, \u0432, \u0433, \u0434, \u043f, \u0442, \u043a, \u0444, \u0448, \u0441, \u049b, \u0445, \u0447, \u0446, \u04bb
p155
ag7
asVsh4
p156
(lp157
V\u0431, \u0432, \u0433, \u0434, \u043f, \u0442, \u043a, \u0444, \u0448, \u0441, \u049b, \u0445, \u0447, \u0446, \u04bb
p158
ag7
asVes6
p159
(lp160
V\u0443, \u0438, \u0439,\u0440
p161
aNasVes2
p162
(lp163
V\u0443, \u0438, \u0439,\u0440
p164
ag7
asVsh5
p165
(lp166
V\u0436, \u0437 , \u043b
p167
ag7
asVes7
p168
(lp169
V\u043c, \u043d, \u04a3
p170
aNasVsy3
p171
(lp172
V\u043c, \u043d, \u04a3
p173
ag7
asVes5
p174
(lp175
V\u04d9,\u04e9,\u04af,\u0456,\u0435,\u0430,\u044b,\u043e,\u044d,\u044f,\u044e
p176
aNasVes4
p177
(lp178
V\u0436, \u0437 , \u043b
p179
ag7
asVes3
p180
(lp181
V\u043c, \u043d, \u04a3
p182
ag7
asVusa
p183
(lp184
V\u0436, \u0437 , \u043b
p185
aNasVes1
p186
(lp187
V\u04d9,\u04e9,\u04af,\u0456,\u0435,\u0430,\u044b,\u043e,\u044d,\u044f,\u044e
p188
ag7
asVsy2
p189
(lp190
V\u0443, \u0438, \u0439,\u0440
p191
ag7
asVsh7
p192
(lp193
V\u0443, \u0438, \u0439,\u0440
p194
aNasVsy1
p195
(lp196
V\u04d9,\u04e9,\u04af,\u0456,\u0435,\u0430,\u044b,\u043e,\u044d,\u044f,\u044e
p197
ag7
asVes8
p198
(lp199
V\u0436, \u0437 , \u043b
p200
aNasVus7
p201
(lp202
V\u0443, \u0438, \u0439,\u0440
p203
aNasVus6
p204
(lp205
V\u04d9,\u04e9,\u04af,\u0456,\u0435,\u0430,\u044b,\u043e,\u044d,\u044f,\u044e
p206
aNasVus5
p207
(lp208
V\u0436, \u0437 , \u043b
p209
ag7
asVus4
p210
(lp211
V\u0431, \u0432, \u0433, \u0434, \u043f, \u0442, \u043a, \u0444, \u0448, \u0441, \u049b, \u0445, \u0447, \u0446, \u04bb
p212
ag7
asVus3
p213
(lp214
V\u043c, \u043d, \u04a3
p215
ag7
asVus9
p216
(lp217
V\u0431, \u0432, \u0433, \u0434, \u043f, \u0442, \u043a, \u0444, \u0448, \u0441, \u049b, \u0445, \u0447, \u0446, \u04bb
p218
aNasVus1
p219
(lp220
V\u04d9,\u04e9,\u04af,\u0456,\u0435,\u0430,\u044b,\u043e,\u044d,\u044f,\u044e
p221
ag7
asVsh6
p222
(lp223
V\u04d9,\u04e9,\u04af,\u0456,\u0435,\u0430,\u044b,\u043e,\u044d,\u044f,\u044e
p224
aNasVzt5
p225
(lp226
V\u0436, \u0437 , \u043b
p227
ag7
asVsy7
p228
(lp229
V\u0443, \u0438, \u0439,\u0440
p230
aNasVzt7
p231
(lp232
V\u0443, \u0438, \u0439,\u0440
p233
aNasVzt6
p234
(lp235
V\u04d9,\u04e9,\u04af,\u0456,\u0435,\u0430,\u044b,\u043e,\u044d,\u044f,\u044e
p236
aNasVzt1
p237
(lp238
V\u04d9,\u04e9,\u04af,\u0456,\u0435,\u0430,\u044b,\u043e,\u044d,\u044f,\u044e
p239
ag7
asVel7
p240
(lp241
V\u0443, \u0438, \u0439,\u0440
p242
aNasVzt3
p243
(lp244
V\u043c, \u043d, \u04a3 \u043c
p245
ag7
asVzt2
p246
(lp247
V\u0443, \u0438, \u0439,\u0440
p248
ag7
as.