(dp0
V\u043c\u0435\u0442\u0430\u0444\u0440\u0430\u0437\u0430
p1
(lp2
S'2'
p3
asV\u0437\u043e\u043e\u0431\u0435\u043d\u0442\u043e\u0441
p4
(lp5
g3
asV\u043c\u0438\u043a\u0440\u043e\u0445\u0438\u043c\u0438\u044f
p6
(lp7
g3
asV\u043c\u0438\u043a\u0440\u043e\u0441\u043a\u043e\u043f
p8
(lp9
g3
asV\u0433\u0435\u043e\u0441\u0438\u043d\u043a\u043b\u0438\u043d\u0430\u043b\u044c
p10
(lp11
g3
asV\u0436\u0438\u0440\u043e\u0447\u0435\u043a
p12
(lp13
g3
asV\u0430\u0432\u0438\u0430\u0441\u043f\u043e\u0440\u0442
p14
(lp15
g3
asV\u0444\u043e\u0442\u043e\u043a\u0430\u0440\u0442\u043e\u0447\u043a\u0430
p16
(lp17
g3
asV\u0430\u043a\u0442\u0438\u043d\u043e\u043c\u0438\u043a\u043e\u0437
p18
(lp19
g3
asV\u044d\u043b\u0435\u043a\u0442\u0440\u043e\u0442\u0435\u0445\u043d\u0438\u043a
p20
(lp21
g3
asV\u043c\u0438\u043a\u0440\u043e\u0430\u043c\u043f\u0435\u0440
p22
(lp23
g3
asV\u0444\u0438\u0437\u0438\u043e\u0442\u0435\u0440\u0430\u043f\u0435\u0432\u0442
p24
(lp25
g3
asV\u0438\u0434\u0438\u043e\u0430\u0434\u0430\u043f\u0442\u0430\u0446\u0438\u044f
p26
(lp27
g3
asV\u0438\u0437\u043e\u0445\u0440\u043e\u043d\u0438\u0437\u043c
p28
(lp29
g3
asV\u0433\u0438\u043f\u043e\u043d\u0438\u043c
p30
(lp31
g3
asV\u043a\u0430\u0440\u0431\u043e\u043a\u0441\u0438\u0433\u0435\u043c\u043e\u0433\u043b\u043e\u0431\u0438\u043d
p32
(lp33
g3
asV\u0434\u0438\u0430\u0433\u0435\u043d\u0435\u0437
p34
(lp35
g3
asV\u0442\u0435\u043b\u0435\u0433\u0440\u0430\u0444\u0438\u0441\u0442
p36
(lp37
g3
asV\u044d\u043b\u0435\u043a\u0442\u0440\u0434\u0438\u0430\u043b\u0438\u0437
p38
(lp39
g3
asV\u043a\u0430\u043b\u043e\u043a\u0430\u0433\u0430\u0442\u0438\u044f
p40
(lp41
g3
asV\u0434\u0435\u043c\u0430\u0440\u043a\u0435\u0442\u0438\u043d\u0433
p42
(lp43
g3
asV\u043f\u0430\u043b\u0435\u043e\u043f\u0441\u0438\u0445\u043e\u043b\u043e\u0433\u0438\u044f
p44
(lp45
g3
asV\u043c\u0438\u043a\u0440\u043e\u043c\u0430\u043d\u0438\u043f\u0443\u043b\u044f\u0442\u043e\u0440
p46
(lp47
g3
asV\u043c\u0430\u0433\u043d\u0435\u0442\u043e\u0434\u0438\u043d\u0430\u043c\u0438\u043a\u0430
p48
(lp49
g3
asV\u0430\u043a\u0432\u0430\u043c\u0430\u0440\u0438\u043d
p50
(lp51
g3
asV\u0434\u0435\u0441\u0443\u0431\u043b\u0438\u043c\u0430\u0446\u0438\u044f
p52
(lp53
g3
asV\u0442\u0440\u0430\u043d\u0441\u0444\u0435\u0440\u0442
p54
(lp55
g3
asV\u0433\u0438\u0434\u0440\u043e\u0441\u0444\u0435\u0440\u0430
p56
(lp57
g3
asV\u0433\u043e\u043d\u043e\u0431\u043b\u0430\u0441\u0442
p58
(lp59
g3
asV\u043c\u0430\u043a\u0440\u043e\u043c\u0430\u0440\u043a\u0435\u0442\u0438\u043d\u0433
p60
(lp61
g3
asV\u043c\u043e\u0440\u0444\u043e\u043d\u043e\u043b\u043e\u0433\u0438\u044f
p62
(lp63
g3
asV\u0444\u0430\u0433\u043e\u0442\u0435\u0440\u0430\u043f\u0438\u044f
p64
(lp65
g3
asV\u043c\u0435\u0442\u0430\u0441\u043e\u043c\u0430\u0442\u043e\u0437
p66
(lp67
g3
asV\u0433\u043b\u0438\u043a\u043e\u043b\u0438\u043f\u0438\u0434
p68
(lp69
g3
asV\u0442\u0440\u0438\u0445\u0438\u043d\u0435\u043b\u043b\u0430
p70
(lp71
g3
asV\u044d\u043b\u0435\u043a\u0442\u0440\u043c\u0435\u0442\u0430\u043b\u043b\u0443\u0440\u0433\u0438\u044f
p72
(lp73
g3
asV\u0433\u0435\u043e\u0433\u0440\u0430\u0444\u0438\u044f
p74
(lp75
g3
asV\u0444\u0438\u043b\u043e\u043a\u0430\u0440\u0442\u0438\u0441\u0442
p76
(lp77
g3
asV\u0430\u0432\u0442\u043e\u0433\u0435\u043d
p78
(lp79
g3
asV\u043c\u0435\u0442\u0430\u043c\u043e\u0434\u0435\u043b\u044c
p80
(lp81
g3
asV\u0442\u0440\u043e\u0444\u043e\u043b\u043e\u0433\u0438\u044f
p82
(lp83
g3
asV\u0430\u0432\u0442\u043e\u0433\u0430\u0440\u0430\u0436
p84
(lp85
g3
asV\u0430\u0440\u0438\u0444\u043c\u043e\u043c\u0435\u0442\u0440
p86
(lp87
g3
asV\u0432\u0430\u0442\u0435\u0440\u043f\u0430\u0441
p88
(lp89
g3
asV\u0433\u0435\u043e\u0442\u0435\u043a\u0442\u043e\u043d\u0438\u043a\u0430
p90
(lp91
g3
asV\u0430\u043d\u0442\u0438\u043a\u043e\u043c\u043c\u0443\u043d\u0438\u0437\u043c
p92
(lp93
g3
asV\u0438\u0437\u043e\u0442\u0435\u0440\u043c\u0430
p94
(lp95
g3
asV\u0442\u0435\u0440\u043c\u043e\u0441\u0444\u0435\u0440\u0430
p96
(lp97
g3
asV\u0433\u0435\u043e\u0445\u0440\u043e\u043d\u043e\u043b\u043e\u0433\u0438\u044f
p98
(lp99
g3
asV\u043c\u0430\u043a\u0440\u043e\u043f\u0430\u0440\u0430\u043c\u0435\u0442\u0440
p100
(lp101
g3
asV\u0430\u043d\u0442\u0438\u0444\u0440\u0438\u0437
p102
(lp103
g3
asV\u0430\u0433\u0440\u043e\u043a\u043b\u0438\u043c\u0430\u0442\u043e\u043b\u043e\u0433\u0438\u044f
p104
(lp105
g3
asV\u044dba\u043fotpahc\u043f\u0438pa\u0446\u0438\u044f
p106
(lp107
g3
asV\u043c\u0443\u043b\u044c\u0442\u0444\u0438\u043b\u044c\u043c
p108
(lp109
g3
asV\u043b\u0438\u0442\u043e\u0441\u0444\u0435\u0440\u0430
p110
(lp111
g3
asV\u043f\u0430\u043b\u0435\u043e\u043c\u0430\u0433\u043d\u0438\u0442\u043e\u043b\u043e\u0433\u0438\u044f
p112
(lp113
g3
asV\u0442\u0440\u0438\u0444\u043e\u0441\u0444\u043e\u0440
p114
(lp115
g3
asV\u043c\u0438\u043a\u0440\u043e\u043c\u0435\u0442\u0440
p116
(lp117
g3
asV\u0444\u0435\u043d\u043e\u043c\u0435\u043d\u043e\u0446\u0435\u043d\u0442\u0440\u0438\u0437\u043c
p118
(lp119
g3
asV\u043f\u043d\u0435\u0432\u043c\u043e\u0430\u0432\u0442\u043e\u043c\u0430\u0442\u0438\u043a\u0430
p120
(lp121
g3
asV\u0433\u0430\u043b\u044c\u0432\u0430\u043d\u043e\u0442\u0435\u0445\u043d\u0438\u043a\u0430
p122
(lp123
g3
asV\u0442\u0440\u043e\u043c\u0431\u043e\u043f\u043b\u0430\u0441\u0442\u0438\u043d
p124
(lp125
g3
asV\u0438\u0437\u043e\u043e\u043a\u0442\u0430\u043d
p126
(lp127
g3
asV\u043c\u043e\u0442\u043e\u0444\u0435\u043b\u044e\u0433\u0430
p128
(lp129
g3
asV\u0444\u0435\u043b\u044c\u0434\u0444\u0435\u0431\u0435\u043b\u044c
p130
(lp131
g3
asV\u0430\u044d\u0440\u043e\u0432\u043e\u043a\u0437\u0430\u043b
p132
(lp133
g3
asV\u0438\u0445\u0442\u0438\u043e\u0444\u0430\u0443\u043d\u0430
p134
(lp135
g3
asV\u0442\u0440\u0438\u043f\u0430\u0444\u043b\u0430\u0432\u0438\u043d
p136
(lp137
g3
asV\u0433\u0438\u0434\u0440\u043e\u044d\u043d\u0435\u0440\u0433\u0435\u0442\u0438\u043a\u0430
p138
(lp139
g3
asV\u0435\u0443\u0440\u043e\u043e\u0431\u043b\u0438\u0433\u0430\u0446\u0438\u044f
p140
(lp141
g3
asV\u043c\u0435\u0442\u0430\u0441\u043a\u043e\u043f
p142
(lp143
g3
asV\u0432\u0435\u043d\u0435\u0440\u043e\u043b\u043e\u0433\u0438\u044f
p144
(lp145
g3
asV\u0433\u0435\u043e\u043a\u0440\u0438\u043e\u043b\u043e\u0433\u0438\u044f
p146
(lp147
g3
asV\u043c\u0435\u0442\u0430\u0433\u0435\u043d\u0435\u0437
p148
(lp149
g3
asV\u0442\u0440\u0438\u0445\u043e\u0433\u0440\u0430\u043c\u043c\u0430
p150
(lp151
g3
asV\u0442\u0440\u0438\u0433\u043b\u0438\u0444
p152
(lp153
g3
asV\u0442\u0435\u043b\u0435\u0444\u043e\u043d\u0438\u0441\u0442\u043a\u0430
p154
(lp155
g3
asV\u0433\u0430\u043b\u044c\u0432\u0430\u043d\u043e\u0441\u043a\u043e\u043f
p156
(lp157
g3
asV\u0433\u0435\u0442\u0435\u0440\u043e\u043d\u0438\u043c
p158
(lp159
g3
asV\u043c\u0435\u0437\u043e\u0437\u043e\u0439
p160
(lp161
g3
asV\u0433\u0438\u043f\u0435\u0440\u0442\u0440\u0438\u0445\u043e\u0437
p162
(lp163
g3
asV\u0433\u0435\u043e\u043c\u043e\u0440\u0444\u043e\u043b\u043e\u0433
p164
(lp165
g3
asV\u0440\u0430\u0434\u0438\u043e\u0442\u0435\u0445\u043d\u0438\u043a
p166
(lp167
g3
asV\u043f\u043b\u0435\u043e\u043c\u043e\u0440\u0444\u0438\u0437\u043c
p168
(lp169
g3
asV\u043c\u0435\u0442\u0430\u0442\u0435\u0437\u0430
p170
(lp171
g3
asV\u0437\u043e\u043e\u043f\u0441\u0438\u0445\u043e\u043b\u043e\u0433\u0438\u044f
p172
(lp173
g3
asV\u0433\u0435\u043c\u0435\u0440\u0430\u043b\u043e\u043f\u0438\u044f
p174
(lp175
g3
asV\u043d\u0435\u0439\u0440\u043e\u0445\u0438\u0440\u0443\u0440\u0433\u0438\u044f
p176
(lp177
g3
asV\u0430\u0443\u0440\u0438\u043f\u0438\u0433\u043c\u0435\u043d\u0442
p178
(lp179
g3
asV\u0441\u0438\u043b\u0438\u043a\u043e\u043c\u0430\u0440\u0433\u0430\u043d\u0435\u0446
p180
(lp181
g3
asV\u043c\u0435\u0442\u0438\u043b\u043e\u0440\u0430\u043d\u0436
p182
(lp183
g3
asV\u0433\u0438\u0434\u0440\u043e\u0438\u0437\u043e\u0433\u0438\u043f\u0441
p184
(lp185
g3
asV\u043c\u0438\u043a\u0440\u043e\u043a\u043b\u0438\u043c\u0430\u0442\u043e\u043b\u0433\u0438\u044f
p186
(lp187
g3
asV\u0441\u0435\u0439\u0441\u043c\u043e\u043c\u0435\u0442\u0440
p188
(lp189
g3
asV\u043c\u043e\u0442\u043e\u043f\u0435\u0445\u043e\u0442\u0430
p190
(lp191
g3
asV\u0442\u0435\u043b\u0435\u0433\u0440\u0430\u043c\u043c\u0430
p192
(lp193
g3
asV\u0442\u0435\u043b\u0435\u0441\u0442\u0430\u043d\u0446\u0438\u044f
p194
(lp195
g3
asV\u043d\u0438\u0442\u0440\u043e\u0433\u043b\u0438\u0446\u0435\u0440\u0438\u043d
p196
(lp197
g3
asV\u0444\u043e\u0442\u043e\u044d\u043b\u0435\u043c\u0435\u043d\u0442
p198
(lp199
g3
asV\u0442\u0435\u043c\u043f\u0435\u0440\u0430\u043c\u0435\u043d\u0442
p200
(lp201
g3
asV\u043c\u0435\u0442\u0430\u0441\u0442\u0430\u0437
p202
(lp203
g3
asV\u043c\u0438\u043a\u0440\u043e\u043f\u0440\u043e\u0446\u0435\u0441\u0441\u043e\u0440
p204
(lp205
g3
asV\u044d\u0442\u043d\u043e\u043b\u0438\u043d\u0433\u0432\u0438\u0441\u0442\u0438\u043a\u0430
p206
(lp207
g3
asV\u043c\u0430\u0433\u043d\u0438\u0442\u043e\u0433\u0440\u0430\u0444
p208
(lp209
g3
asV\u0433\u0435\u0440\u043f\u0435\u0442\u043e\u043b\u043e\u0433\u0438\u044f
p210
(lp211
g3
asV\u0430\u0441\u0442\u0440\u043e\u0431\u0438\u043e\u043b\u043e\u0433\u0438\u044f
p212
(lp213
g3
asV\u0438\u0445\u0442\u0438\u043e\u0444\u0430\u0433
p214
(lp215
g3
asV\u0444\u043b\u044e\u043e\u0440\u043e\u0433\u0440\u0430\u0444
p216
(lp217
g3
asV\u0442\u0440\u0430\u0435\u043a\u0442\u043e\u0440\u0438\u044f
p218
(lp219
g3
asV\u0440\u0430\u0434\u0438\u043e\u0441\u0438\u0433\u043d\u0430\u043b
p220
(lp221
g3
asV\u0442\u0440\u0430\u043d\u0437\u0438\u0442\u043e\u043b\u043e\u0433\u0438\u044f
p222
(lp223
g3
asV\u0430\u043d\u0442\u0438\u0433\u0435\u043b\u0438\u0439
p224
(lp225
g3
asV\u0433\u0435\u043c\u043e\u0446\u0438\u0442\u043e\u0431\u043b\u0430\u0441\u0442
p226
(lp227
g3
asV\u0433\u0435\u0442\u0435\u0440\u043e\u043c\u043e\u0440\u0444\u0438\u0437\u043c
p228
(lp229
g3
asV\u043c\u0435\u0434\u0438\u0430\u0442\u0435\u043a\u0430
p230
(lp231
g3
asV\u0433\u0438\u043f\u043d\u043e\u0442\u0438\u0437\u0435\u0440
p232
(lp233
g3
asV\u044d\u043b\u0435\u043a\u0442\u0440\u043e\u0434\u0438\u0430\u043b\u0438\u0437
p234
(lp235
g3
asV\u0440\u0430\u0434\u0438\u043e\u043a\u043e\u043c\u0438\u0442\u0435\u0442
p236
(lp237
g3
asV\u043a\u0430\u0440\u0438\u043e\u043b\u0438\u043c\u0444\u0430
p238
(lp239
g3
asV\u0431\u0438\u043e\u0433\u0430\u0437
p240
(lp241
g3
asV\u0444\u0438\u0442\u043e\u0446\u0435\u043d\u043e\u0437
p242
(lp243
g3
asV\u043c\u0438\u043a\u0440\u043e\u0431\u0438\u043e\u043b\u043e\u0433\u0438\u044f
p244
(lp245
g3
asV\u0433\u0438\u043d\u0435\u043a\u043e\u043b\u043e\u0433\u0438\u044f
p246
(lp247
g3
asV\u0430\u044d\u0440\u043e\u043c\u0430\u044f\u043a
p248
(lp249
g3
asV\u0433\u0435\u0431\u0435\u0444\u0440\u0435\u043d\u0438\u044f
p250
(lp251
g3
asV\u043a\u0430\u043b\u044c\u0446\u0435\u0444\u043e\u0431
p252
(lp253
g3
asV\u0433\u0435\u043b\u0438\u043e\u0442\u0440\u043e\u043f
p254
(lp255
g3
asV\u043c\u043e\u0442\u043e\u0440\u043e\u043b\u043b\u0435\u0440
p256
(lp257
g3
asV\u0437\u043e\u043e\u0442\u0435\u0445\u043d\u0438\u043a
p258
(lp259
g3
asV\u0433\u0435\u043e\u043c\u0435\u0445\u0430\u043d\u0438\u043a\u0430
p260
(lp261
g3
asV\u0431\u0430\u0440\u043e\u0440\u0435\u0446\u0435\u043f\u0442\u043e\u0440
p262
(lp263
g3
asV\u0433\u0438\u0434\u0440\u043e\u0441\u0442\u0430\u0442\u0438\u043a\u0430
p264
(lp265
g3
asV\u0430\u0441\u0442\u0440\u043e\u0431\u043e\u0442\u0430\u043d\u0438\u043a\u0430
p266
(lp267
g3
asV\u044d\u043b\u0435\u043a\u0442\u0440\u043e\u0442\u0435\u0445\u043d\u0438\u043a\u0430
p268
(lp269
g3
asV\u0438\u0437\u043e\u0441\u0435\u043c\u0438\u044f
p270
(lp271
g3
asV\u0444\u043e\u0442\u043e\u043f\u043b\u0435\u043d\u043a\u0430
p272
(lp273
g3
asV\u0433\u0438\u043f\u043e\u0442\u043e\u043d\u0438\u044f
p274
(lp275
g3
asV\u043c\u0435\u0442\u0430\u0444\u0438\u0437\u0438\u043a\u0430
p276
(lp277
g3
asV\u043d\u0435\u043e\u0440\u043e\u043c\u0430\u043d
p278
(lp279
g3
asV\u0437\u043e\u043e\u0442\u0435\u0445\u043d\u0438\u044f
p280
(lp281
g3
asV\u043c\u0435\u043b\u043e\u0434\u0435\u043a\u043b\u0430\u043c\u0430\u0446\u0438\u044f
p282
(lp283
g3
asV\u0442\u0440\u0430\u043d\u0441\u043b\u043e\u043a\u0430\u0446\u0438\u044f
p284
(lp285
g3
asV\u043a\u0430\u0442\u0430\u0433\u0435\u043d\u0435\u0437
p286
(lp287
g3
asV\u0442\u0440\u0438\u0445\u043e\u043c\u043e\u043d\u043e\u0437
p288
(lp289
g3
asV\u0442\u0440\u0438\u0445\u043e\u043c\u043e\u043d\u043e\u0434
p290
(lp291
g3
asV\u0433\u0438\u0434\u0440\u043e\u0430\u0432\u0442\u043e\u043c\u0430\u0442
p292
(lp293
g3
asV\u0433\u0438\u0434\u0440\u043e\u0438\u0437\u043e\u0442\u0435\u0440\u043c\u0434\u0435\u0440
p294
(lp295
g3
asV\u0442\u0435\u0440\u0430\u0442\u043e\u043b\u043e\u0433\u0438\u044f
p296
(lp297
g3
asV\u043c\u043e\u043d\u043e\u0442\u0438\u043f
p298
(lp299
g3
asV\u0437\u043e\u043e\u043b\u0430\u0442\u0440\u0438\u044f
p300
(lp301
g3
asV\u0433\u0438\u043d\u0430\u043d\u0434\u0440\u043e\u043c\u043e\u0440\u0444\u0438\u0437\u043c
p302
(lp303
g3
asV\u043c\u0435\u0437\u043e\u0430\u0442\u043e\u043c
p304
(lp305
g3
asV\u044d\u043a\u043e\u0442\u043e\u043a\u0441\u0438\u043a\u043e\u043b\u043e\u0433\u0438\u044f
p306
(lp307
g3
asV\u0433\u0438\u0434\u0440\u043e\u043f\u0443\u043b\u044c\u0442
p308
(lp309
g3
asV\u0442\u0435\u043b\u0435\u043e\u043b\u043e\u0433\u0438\u044f
p310
(lp311
g3
asV\u0441\u0435\u0439\u0441\u043c\u043e\u0442\u0435\u043a\u0442\u043e\u043d\u0438\u043a\u0430
p312
(lp313
g3
asV\u0442\u0440\u0438\u0445\u043b\u043e\u0440\u0430\u0446\u0435\u0442\u0430\u0442
p314
(lp315
g3
asV\u0442\u0435\u043b\u0435\u043b\u043e\u043a\u0430\u0442\u043e\u0440
p316
(lp317
g3
asV\u0430\u0444\u0440\u0438\u043a\u0430\u043d\u0442\u0440\u043e\u043f
p318
(lp319
g3
asV\u0433\u0438\u0434\u0440\u043e\u0430\u0432\u0438\u0430\u0446\u0438\u044f
p320
(lp321
g3
asV\u0442\u0435\u043a\u0441\u0442\u043e\u043b\u043e\u0433
p322
(lp323
g3
asV\u0444\u0438tome\u043b\u0438opa\u0446\u0438\u044f
p324
(lp325
g3
asV\u0431\u0438\u043e\u0434\u0435\u0433\u0440\u0430\u0434\u0430\u0446\u0438\u044f
p326
(lp327
g3
asV\u0433\u0438\u043f\u0435\u0440\u0438\u043d\u0434\u0435\u043a\u0441
p328
(lp329
g3
asV\u0442\u0435\u043b\u0435\u0433\u0440\u0430\u0444
p330
(lp331
g3
asV\u0431\u0438\u043e\u0438\u043d\u0434\u0438\u043a\u0430\u0442\u043e\u0440
p332
(lp333
g3
asV\u043c\u0435\u0437\u043e\u0437\u0430\u0432\u0440
p334
(lp335
g3
asV\u0442\u0435\u043f\u043b\u0438\u0446\u0430
p336
(lp337
g3
asV\u043c\u0435\u0442\u0430\u0444\u043e\u0441
p338
(lp339
g3
asV\u0438\u0437\u043e\u0431\u0443\u0442\u0430\u043d
p340
(lp341
g3
asV\u0431\u0438\u043e\u0433\u0435\u043d\u0435\u0437
p342
(lp343
g3
asV\u0431\u0438\u043e\u043d\u0438\u043a\u0430
p344
(lp345
g3
asV\u0442\u0435\u0445\u043d\u043e\u043b\u043e\u0433\u0438\u044f
p346
(lp347
g3
asV\u0442\u0435\u043b\u0435\u0444\u0438\u043b\u044c\u043c
p348
(lp349
g3
asV\u0433\u0438\u043f\u043e\u0432\u0438\u0442\u0430\u043c\u0438\u043d\u043e\u0437
p350
(lp351
g3
asV\u0442\u0440\u0430\u043d\u0441\u043f\u043b\u0430\u043d\u0442\u0430\u0442
p352
(lp353
g3
asV\u043c\u0438\u043b\u043b\u0438\u043c\u0438\u043a\u0440\u043e\u043d
p354
(lp355
g3
asV\u0432\u0435\u043b\u043e\u0442\u0440\u0435\u043a
p356
(lp357
g3
asV\u0441\u0438\u043d\u0442\u0435\u0437\u0433\u0430\u0437
p358
(lp359
g3
asV\u0430\u044d\u0440\u043e\u0444\u043b\u043e\u0442
p360
(lp361
g3
asV\u0442\u0435\u043c\u043f\u043e\u0437\u0438\u043b
p362
(lp363
g3
asV\u0433\u0438\u0434\u0440\u043e\u0431\u043e\u0440\u0430\u0446\u0438\u0442
p364
(lp365
g3
asV\u0433\u0435\u043b\u0438\u043e\u0444\u0438\u0437\u0438\u043a\u0430
p366
(lp367
g3
asV\u0441\u0435\u043a\u0432\u043e\u0439\u044f\u0434\u0435\u043d\u0434\u0440\u043e\u043d
p368
(lp369
g3
asV\u043f\u043e\u043b\u0438\u043c\u043e\u0440\u0444\u0438\u0437\u043c
p370
(lp371
g3
asV\u043a\u0430\u0440\u0431\u043e\u0442\u0435\u0440\u043c\u0438\u044f
p372
(lp373
g3
asV\u0433\u0438\u0434\u0440\u043e\u0430\u043a\u0443\u0441\u0442\u0438\u043a\u0430
p374
(lp375
g3
asV\u0430\u0432\u0438\u0442\u0430\u043c\u0438\u043d\u043e\u0437
p376
(lp377
g3
asV\u043c\u0438\u043e\u0437\u0438\u0442
p378
(lp379
g3
asV\u0432\u0430\u0442\u0435\u0440\u043f\u043e\u043b\u043e
p380
(lp381
g3
asV\u0433\u0435\u043b\u0438\u043e\u0442\u0440\u043e\u043f\u0438\u0437\u043c
p382
(lp383
g3
asV\u0442\u0440\u043e\u043c\u0431\u043e\u043a\u0438\u043d\u0430\u0437\u0430
p384
(lp385
g3
asV\u043c\u0438\u043e\u0437\u0438\u043d
p386
(lp387
g3
asV\u044d\u0434\u0430\u0444\u043e\u043d
p388
(lp389
g3
asV\u0433\u0438\u0434\u0440\u043e\u0442\u0435\u0440\u043c\u0430
p390
(lp391
g3
asV\u0442\u0435\u0440\u0440\u0438\u0442\u043e\u0440\u0438\u044f
p392
(lp393
g3
asV\u0433\u0438\u043f\u0435\u0440\u043e\u0440\u0435\u043a\u0441\u0438\u044f
p394
(lp395
g3
asV\u043c\u0438\u043a\u0440\u043e\u0430\u0441\u0441\u0430\u043c\u0431\u043b\u0435\u0440
p396
(lp397
g3
asV\u0442\u0435\u0440\u0430\u043f\u0435\u0432\u0442
p398
(lp399
g3
asV\u044d\u043b\u0435\u043a\u0442\u0440\u043e\u0441\u0442\u0430\u043d\u0446\u0438\u044f
p400
(lp401
g3
asV\u0430\u0432\u0442\u043e\u043a\u0440\u0430\u043d
p402
(lp403
g3
asV\u0433\u0435\u043b\u0438\u043e\u0433\u0440\u0430\u0444
p404
(lp405
g3
asV\u0430\u043d\u0438\u0437\u043e\u0442\u0440\u043e\u043f\u0438\u044f
p406
(lp407
g3
asV\u043c\u043e\u043d\u043e\u043b\u0438\u0442
p408
(lp409
g3
asV\u0431\u0438\u043e\u043a\u043b\u0438\u043c\u0430\u0442
p410
(lp411
g3
asV\u0438\u0437\u043e\u043c\u043e\u0440\u0444\u0438\u0437\u043c
p412
(lp413
g3
asV\u0442\u0443\u0431\u0435\u0440\u043a\u0443\u043b\u0438\u043d
p414
(lp415
g3
asV\u0431\u0438\u043e\u043f\u043e\u043b\u0438\u043c\u0435\u0440
p416
(lp417
g3
asV\u0437\u0438\u043d\u0433\u0448\u043f\u0438\u043b\u044c
p418
(lp419
g3
asV\u0436\u0438\u0440\u043e\u0431\u0430\u043d\u043a
p420
(lp421
g3
asV\u043d\u0435\u043e\u043f\u043b\u0430\u0442\u043e\u043d\u0438\u0437\u043c
p422
(lp423
g3
asV\u0430\u043c\u0438\u0442\u043e\u0437
p424
(lp425
g3
asV\u0442\u0435\u043e\u043a\u0440\u0430\u0442\u0438\u044f
p426
(lp427
g3
ag3
asV\u0430\u0432\u0438\u0430\u043a\u0430\u0441\u0441\u0430
p428
(lp429
g3
asV\u0438\u043c\u043c\u0443\u043d\u043e\u043b\u043e\u0433\u0438\u044f
p430
(lp431
g3
asV\u0433\u0438\u043f\u0435\u0440\u043c\u0435\u0434\u0438\u0430
p432
(lp433
g3
asV\u043c\u0435\u0433\u0430\u043f\u0430\u0440\u0441\u0435\u043a
p434
(lp435
g3
asV\u0430\u0432\u0442\u043e\u044d\u043b\u0435\u043a\u0442\u0440\u0438\u043a
p436
(lp437
g3
asV\u0438\u043d\u0442\u0435\u0440\u043d\u0430\u0446\u0438\u043e\u043d\u0430\u043b\u0438\u0437\u043c
p438
(lp439
g3
asV\u0445\u0440\u043e\u043c\u043e\u0441\u0444\u0435\u0440\u0430
p440
(lp441
g3
asV\u0440\u0430\u0434\u0438\u043e\u043a\u043e\u043d\u0441\u0442\u0440\u0443\u043a\u0442\u043e\u0440
p442
(lp443
g3
asV\u0433\u043b\u043e\u0442\u0442\u043e\u0433\u043e\u043d\u0438\u044f
p444
(lp445
g3
asV\u043c\u0435\u0442\u0430\u0431\u043e\u043b\u0438\u0437\u043c
p446
(lp447
g3
asV\u043c\u0435\u043b\u0430\u043d\u0445\u043e\u043b\u0438\u044f
p448
(lp449
g3
asV\u0441\u0435\u043a\u0441\u043e\u043f\u0430\u0442\u043e\u043b\u043e\u0433\u0438\u044f
p450
(lp451
g3
asV\u0442\u0435\u0440\u043c\u0438\u043d\u043e\u043b\u043e\u0433\u0438\u044f
p452
(lp453
g3
asV\u0444\u0438\u0442\u043e\u043f\u0430\u0442\u043e\u043b\u043e\u0433\u0438\u044f
p454
(lp455
g3
asV\u043c\u0435\u0442\u0440\u043e\u043f\u043e\u043b\u0438\u044f
p456
(lp457
g3
asV\u0433\u0438\u0434\u0440\u043e\u043a\u0441\u0438\u043b
p458
(lp459
g3
asV\u044dohotema
p460
(lp461
g3
asV\u044d\u043c\u043f\u0438\u0440\u0438\u043e\u043a\u0440\u0438\u0442\u0438\u0446\u0438\u0437\u043c
p462
(lp463
g3
asV\u0431\u0438\u043e\u0441\u0438\u043d\u0442\u0435\u0437
p464
(lp465
g3
asV\u0433\u0435\u043c\u043e\u0434\u0438\u043d\u0430\u043c\u043e\u043c\u0435\u0442\u0440
p466
(lp467
g3
asV\u0442\u0435\u043b\u0435\u0444\u0430\u043a\u0441
p468
(lp469
g3
asV\u0430\u0432\u0438\u0430\u043c\u043e\u0434\u0435\u043b\u0438\u0437\u043c
p470
(lp471
g3
asV\u0430\u0441\u0442\u0440\u043e\u0444\u0438\u0437\u0438\u043a\u0430
p472
(lp473
g3
asV\u043c\u0438\u043a\u0440\u043e\u043f\u0441\u0438\u044f
p474
(lp475
g3
asV\u043c\u0435\u0434\u043f\u0443\u043d\u043a\u0442
p476
(lp477
g3
asV\u043c\u0438\u043a\u0440\u043e\u0444\u043b\u043e\u0440\u0430
p478
(lp479
g3
asV\u0435\u0432\u0442\u0440\u043e\u0444\u0442\u0430\u043d\u0443
p480
(lp481
g3
asV\u0433\u043e\u043d\u043e\u043a\u043e\u043a\u043a
p482
(lp483
g3
asV\u0445\u0440\u043e\u043d\u043e\u0431\u0438\u043e\u043b\u043e\u0433\u0438\u044f
p484
(lp485
g3
asV\u043f\u0430\u043b\u0438\u043d\u0433\u0435\u043d\u0435\u0437
p486
(lp487
g3
asV\u044d\u0442\u0438\u043b\u0435\u043d\u0434\u0438\u0430\u043c\u0438\u043d
p488
(lp489
g3
asV\u0433\u0438\u043f\u0435\u0440\u0442\u0435\u043d\u0437\u0438\u044f
p490
(lp491
g3
asV\u0442\u0435\u043e\u043b\u043e\u0433
p492
(lp493
g3
asV\u0442\u0440\u0438\u0445\u043e\u0434\u0438\u043d\u043e\u0437
p494
(lp495
g3
asV\u0433\u043b\u043e\u0442\u0442\u043e\u043b\u043e\u0433\u0438\u044f
p496
(lp497
g3
asV\u0433\u0438\u043f\u043f\u043e\u043b\u043e\u0433\u0438\u044f
p498
(lp499
g3
asV\u0433\u0438\u0440\u043e\u0441\u043a\u043e\u043f
p500
(lp501
g3
asV\u0442\u043e\u0432\u0430\u0440\u043e\u0432\u0435\u0434
p502
(lp503
g3
asV\u0433\u043e\u043b\u043e\u0446\u0435\u043d
p504
(lp505
g3
asV\u0431\u0438\u043e\u044d\u0442\u0438\u043a\u0430
p506
(lp507
g3
asV\u0442\u0440\u0435\u0445\u0431\u0443\u0441\u043a\u0430
p508
(lp509
g3
asV\u0432\u0443\u043b\u043a\u0430\u043d\u043e\u043b\u043e\u0433\u0438\u044f
p510
(lp511
g3
asV\u0442\u0435\u0445\u043d\u0438\u043a\u0443\u043c
p512
(lp513
g3
asV\u0442\u0440\u0438\u0445\u043e\u043c\u0430
p514
(lp515
g3
asV\u0438\u0434\u0435\u043e\u043c\u043e\u0442\u043e\u0440\u0438\u043a\u0430
p516
(lp517
g3
asV\u0433\u043d\u043e\u0441\u0435\u043e\u043b\u043e\u0433\u0438\u044f
p518
(lp519
g3
asV\u0438\u0437\u043e\u043c\u0435\u0442\u0440\u0438\u044f
p520
(lp521
g3
asV\u0433\u0430\u0441\u0442\u0440\u043e\u0441\u043a\u043e\u043f\u0438\u044f
p522
(lp523
g3
asV\u0438\u043e\u043d\u043e\u0441\u0444\u0435\u0440\u0430
p524
(lp525
g3
asV\u044d\u0442\u043d\u043e\u044d\u043a\u043e\u043b\u043e\u0433\u0438\u044f
p526
(lp527
g3
asV\u0433\u0438\u043f\u0435\u0440\u0433\u043b\u0438\u043a\u0435\u043c\u0438\u044f
p528
(lp529
g3
asV\u043c\u0430\u043a\u0440\u043e\u0430\u0441\u0441\u0435\u043c\u0431\u043b\u0435\u0440
p530
(lp531
g3
asV\u0440\u0430\u0434\u0438\u043e\u0441\u043f\u0435\u043a\u0442\u0440\u043e\u0441\u043a\u043e\u043f\u0438\u044f
p532
(lp533
g3
asV\u0433\u0438\u0434\u0440\u043e\u043c\u0435\u043b\u0438\u043e\u0440\u0430\u0446\u0438\u044f
p534
(lp535
g3
asV\u0433\u0435\u043e\u0430\u043a\u0443\u0441\u0442\u0438\u043a\u0430
p536
(lp537
g3
asV\u044d\u043d\u0434\u043e\u0431\u0438\u043e\u0441\u0444\u0435\u0440\u0430
p538
(lp539
g3
asV\u043c\u043e\u0442\u043e\u043a\u0440\u043e\u0441\u0441
p540
(lp541
g3
asV\u0434\u0435\u0437\u0438\u043d\u0444\u043e\u0440\u043c\u0430\u0446\u0438\u044f
p542
(lp543
g3
asV\u0430\u043d\u0434\u0440\u043e\u0433\u0438\u043d\u0438\u044f
p544
(lp545
g3
asV\u043a\u0430\u0440\u0431\u043e\u0430\u043d\u0433\u0438\u0434\u0440\u0430\u0437\u0430
p546
(lp547
g3
asV\u043f\u044c\u0435\u0437\u043e\u0433\u0438\u043f\u0441\u0442\u0435\u0440
p548
(lp549
g3
asV\u0442\u0440\u043e\u043c\u0431\u043e\u043b\u0438\u043a\u0432\u0438\u043d
p550
(lp551
g3
asV\u0444\u0438\u0442\u043e\u0433\u0435\u043e\u0433\u0440\u0430\u0444\u0438\u044f
p552
(lp553
g3
asV\u043c\u0435\u0442\u0435\u043e\u0440\u043e\u0433\u0440\u0430\u0444
p554
(lp555
g3
asV\u0433\u0435\u0442\u0435\u0440\u043e\u0442\u0440\u043e\u0444
p556
(lp557
g3
asV\u0430\u0432\u0442\u043e\u0442\u0443\u0440\u0438\u0437\u043c
p558
(lp559
g3
asV\u043c\u0435\u043b\u0430\u043d\u0445\u043e\u043b\u0438\u043a
p560
(lp561
g3
asV\u0433\u0438\u0434\u0440\u043e\u0442\u0435\u0445\u043d\u0438\u043a\u0430
p562
(lp563
g3
asV\u0445\u043b\u043e\u0440\u043e\u0444\u043e\u0440\u043c
p564
(lp565
g3
asV\u0440\u0430\u0434\u0438\u043e\u0431\u0438\u043e\u043b\u043e\u0433\u0438\u044f
p566
(lp567
g3
asV\u043f\u043e\u043b\u0438\u0442\u0435\u0445\u043d\u0438\u0437\u043c
p568
(lp569
g3
asV\u0442\u0435\u043e\u043b\u043e\u0433\u0438\u044f
p570
(lp571
g3
asV\u0442\u0440\u0430\u043d\u0441\u0444\u0443\u0437\u0438\u044f
p572
(lp573
g3
asV\u0437\u043e\u043e\u0433\u0438\u0433\u0438\u0435\u043d\u0430
p574
(lp575
g3
asV\u0444\u043e\u0442\u043e\u0445\u0438\u043c\u0438\u044f
p576
(lp577
g3
asV\u043f\u0430\u0440\u0430\u043c\u0430\u0433\u043d\u0435\u0442\u0438\u0437\u043c
p578
(lp579
g3
asV\u043f\u0435\u0440\u0444\u043e\u043b\u0435\u043d\u0442\u0430
p580
(lp581
g3
asV\u0441\u0438\u043b\u044c\u0445\u0440\u043e\u043c
p582
(lp583
g3
asV\u0442\u0435\u0445\u043d\u043e\u0444\u043e\u0431\u0438\u044f
p584
(lp585
g3
asV\u0434\u0435\u043d\u0441\u0438\u043c\u0435\u0442\u0440\u0438\u044f
p586
(lp587
g3
asV\u0441\u043f\u0438\u0434\u043e\u043c\u0435\u0442\u0440
p588
(lp589
g3
asV\u0442\u0435\u0442\u0440\u0430\u043a\u043e\u0440
p590
(lp591
g3
asV\u043c\u0438\u043b\u043b\u0438\u0431\u0430\u0440
p592
(lp593
g3
asV\u0433\u043b\u043e\u0441\u0441\u0435\u043c\u0430\u0442\u0438\u043a\u0430
p594
(lp595
g3
asV\u043c\u0435\u0437\u043e\u0434\u0435\u0440\u043c\u0430
p596
(lp597
g3
asV\u043c\u0438\u043a\u0441\u043e\u0446\u0435\u043b\u044c
p598
(lp599
g3
asV\u0442\u043e\u043a\u0441\u0438\u043a\u043e\u043b\u043e\u0433\u0438\u044f
p600
(lp601
g3
asV\u0430\u0443\u0434\u0438\u043e\u043a\u0430\u0441\u0441\u0435\u0442\u0430
p602
(lp603
g3
asV\u0433\u0438\u043f\u043e\u043a\u0441\u0430\u043d\u0442\u0438\u043d
p604
(lp605
g3
asV\u0430\u0432\u0442\u043e\u0438\u043d\u0441\u043f\u0435\u043a\u0446\u0438\u044f
p606
(lp607
g3
asV\u0438\u0434\u0435\u043e\u0433\u0440\u0430\u043c\u043c\u0430
p608
(lp609
g3
asV\u0433\u0438\u043f\u043e\u0442\u0435\u0440\u043c\u0438\u044f
p610
(lp611
g3
asV\u0433\u0430\u0437\u043e\u043c\u043e\u0442\u043e\u0440
p612
(lp613
g3
asV\u0445\u0435\u043c\u043e\u0441\u043e\u0440\u0431\u0446\u0438\u044f
p614
(lp615
g3
asV\u043c\u0435\u0442\u0430\u0431\u043b\u0430\u0441\u0442\u0435\u0437
p616
(lp617
g3
asV\u0433\u0435\u043c\u0430\u0442\u043e\u043b\u043e\u0433\u0438\u044f
p618
(lp619
g3
asV\u0442\u0435\u043f\u043b\u043e\u0432\u043e\u0437
p620
(lp621
g3
asV\u0433\u0438\u0434\u0440\u0430\u0432\u043b\u0438\u043a\u0430
p622
(lp623
g3
asV\u0433\u0438\u0430\u043b\u043e\u043c\u0435\u043b\u0430\u043d
p624
(lp625
g3
asV\u0430\u043b\u043b\u043e\u0442\u0440\u043e\u043f\u0438\u044f
p626
(lp627
g3
asV\u043f\u0430\u043b\u0435\u043e\u0432\u0443\u043b\u043a\u0430\u043d\u043e\u043b\u043e\u0433\u0438\u044f
p628
(lp629
g3
asV\u0442\u0435\u0440\u0440\u0430\u0440\u0438\u0443\u043c
p630
(lp631
g3
asV\u0438\u043c\u043c\u0443\u043d\u043e\u043f\u0440\u043e\u0444\u0438\u043b\u0430\u043a\u0442\u0438\u043a\u0430
p632
(lp633
g3
asV\u0442\u0440\u0430\u043d\u0441\u043f\u043e\u0440\u0442\u0435\u0440
p634
(lp635
g3
asV\u0431\u0438\u043e\u044d\u043a\u043e\u043b\u043e\u0433\u0438\u044f
p636
(lp637
g3
asV\u043f\u043e\u043b\u0438\u0446\u0435\u043d\u0442\u0440\u0438\u0437\u043c
p638
(lp639
g3
asV\u0431\u0430\u0440\u043e\u0442\u0435\u0440\u0430\u043f\u0438\u044f
p640
(lp641
g3
asV\u0444\u0435\u043d\u043e\u0433\u0435\u043d\u0435\u0442\u0438\u043a\u0430
p642
(lp643
g3
asV\u043c\u0435\u0442\u0430\u0431\u043e\u043b\u0438\u0442
p644
(lp645
g3
asV\u0433\u0435\u043e\u0434\u0435\u043c\u043e\u0433\u0440\u0430\u0444\u0438\u044f
p646
(lp647
g3
asV\u044d\u043b\u0435\u043a\u0442\u0440\u043c\u0430\u0433\u043d\u0435\u0442\u0438\u0437\u043c
p648
(lp649
g3
asV\u0433\u0435\u0440\u0431\u0438\u0446\u0438\u0434
p650
(lp651
g3
asV\u0438\u043d\u0442\u0435\u0440\u0444\u0435\u0439\u0441
p652
(lp653
g3
asV\u043c\u0438\u043e\u043b\u043e\u0433\u0438\u044f
p654
(lp655
g3
asV\u0438\u043d\u0432\u0430\u043b\u044e\u0442\u0430
p656
(lp657
g3
asV\u0433\u0430\u043f\u043b\u043e\u043b\u043e\u0433\u0438\u044f
p658
(lp659
g3
asV\u0444\u0438\u043b\u043e\u043a\u0430\u0440\u0442\u0438\u044f
p660
(lp661
g3
asV\u043c\u0435\u0437\u043e\u0441\u0444\u0435\u0440\u0430
p662
(lp663
g3
asV\u0430\u0432\u0442\u043e\u0431\u0430\u0437\u0430
p664
(lp665
g3
asV\u0444\u043e\u0442\u043e\u0440\u0435\u043f\u043e\u0440\u0442\u0430\u0436
p666
(lp667
g3
asV\u0444\u0438\u0442\u043e\u043c\u0430\u0441\u0441\u0430
p668
(lp669
g3
asV\u044d\u043a\u043e\u043d\u043e\u043c\u0433\u0435\u043e\u0433\u0440\u0430\u0444\u0438\u044f
p670
(lp671
g3
asV\u043b\u0438\u043d\u0433\u0432\u043e\u0434\u0438\u0434\u0430\u043a\u0442\u0438\u043a\u0430
p672
(lp673
g3
asV\u0442\u0435\u043b\u0435\u043a\u043e\u043c\u043c\u0443\u043d\u0438\u043a\u0430\u0446\u0438\u044f
p674
(lp675
g3
asV\u044d\u043d\u0442\u043e\u043c\u043e\u043b\u043e\u0433
p676
(lp677
g3
asV\u044d\u043a\u0441\u0442\u0440\u0430\u0441\u0435\u043d\u0441\u043e\u0440\u0438\u043a\u0430
p678
(lp679
g3
asV\u0433\u0438\u0434\u0440\u043e\u043b\u043e\u043a\u0430\u0446\u0438\u044f
p680
(lp681
g3
asV\u0441\u0438\u043d\u044d\u043a\u043e\u043b\u043e\u0433\u0438\u044f
p682
(lp683
g3
asV\u043c\u043e\u043d\u043e\u0432\u0430\u043a\u0446\u0438\u043d\u0430
p684
(lp685
g3
asV\u0438\u043d\u0441\u0446\u0435\u043d\u0438\u0440\u043e\u0432\u043a\u0430
p686
(lp687
g3
asV\u0442\u0440\u0438\u0430\u043d\u0433\u0443\u043b\u044f\u0446\u0438\u044f
p688
(lp689
g3
asV\u0444\u0438\u0437\u043a\u0443\u043b\u044c\u0442\u0443\u0440\u0430
p690
(lp691
g3
asV\u0438\u0437\u043e\u0442\u043e\u043f
p692
(lp693
g3
asV\u0441\u0430\u0445\u0430\u0440\u0438\u043c\u0435\u0442\u0440
p694
(lp695
g3
asV\u0442\u0440\u0430\u0434\u0435\u0441\u043a\u0430\u043d\u0430\u0446\u0438\u044f
p696
(lp697
g3
asV\u0444\u043e\u0442\u043e\u0440\u0435\u0446\u0435\u043f\u0446\u0438\u044f
p698
(lp699
g3
asV\u0437\u043e\u043e\u043b\u043e\u0433\u0438\u044f
p700
(lp701
g3
asV\u0433\u0438\u043f\u043e\u0433\u043b\u0438\u043a\u0435\u043c\u0438\u044f
p702
(lp703
g3
asV\u0440\u0430\u0434\u0438\u043e\u043a\u043e\u043c\u043f\u0430\u0441
p704
(lp705
g3
asV\u043d\u0435\u0432\u0440\u043e\u043f\u0430\u0442\u043e\u043b\u043e\u0433\u0438\u044f
p706
(lp707
g3
asV\u043c\u043e\u043d\u043e\u0433\u0440\u0430\u043c\u043c\u0430
p708
(lp709
g3
asV\u043b\u0438\u043d\u0433\u0432\u043e\u0441\u0442\u0430\u0442\u0438\u0441\u0442\u0438\u043a\u0430
p710
(lp711
g3
asV\u043c\u0435\u0442\u0438\u043b\u0431\u0443\u0442\u0430\u0434\u0438\u0435\u043d
p712
(lp713
g3
asV\u0438\u043d\u0442\u0443\u0431\u0430\u0446\u0438\u044f
p714
(lp715
g3
asV\u043c\u043e\u043d\u043e\u0441\u0430\u0445\u0430\u0440\u0438\u0434
p716
(lp717
g3
asV\u0431\u0438\u043e\u0446\u0435\u043d\u043e\u0437
p718
(lp719
g3
asV\u0430\u0443\u0442\u044d\u043a\u043e\u043b\u043e\u0433\u0438\u044f
p720
(lp721
g3
asV\u0430\u0432\u0438\u0430\u0442\u0440\u0430\u0441\u0441\u0430
p722
(lp723
g3
asV\u0442\u0435\u043b\u0435\u0444\u043e\u043d\u0438\u0441\u0442
p724
(lp725
g3
asV\u043a\u0430\u0440\u0438\u043e\u043b\u043e\u0433\u0438\u044f
p726
(lp727
g3
asV\u0433\u0438\u043f\u043e\u043a\u0441\u0438\u044f
p728
(lp729
g3
asV\u0433\u0435\u0442\u0435\u0440\u043e\u0437\u0438\u0433\u043e\u0442\u0430
p730
(lp731
g3
asV\u043c\u0435\u0442\u0430\u043c\u043e\u0440\u0444\u043e\u0437\u0430
p732
(lp733
g3
asV\u0433\u0438\u043f\u043d\u043e\u0442\u0435\u0440\u0430\u043f\u0438\u044f
p734
(lp735
g3
asV\u043f\u043e\u043b\u0438\u043f\u0440\u043e\u043f\u0438\u043b\u0435\u043d
p736
(lp737
g3
asV\u0433\u0435\u043e\u044d\u043d\u0435\u0440\u0433\u0435\u0442\u0438\u043a\u0430
p738
(lp739
g3
asV\u0432\u0430\u043a\u0443\u0443\u043c\u043c\u0435\u0442\u0440
p740
(lp741
g3
asV\u043c\u0435\u0434\u0438\u0435\u0432\u0438\u0441\u0442\u0438\u043a\u0430
p742
(lp743
g3
asV\u0442\u0435\u043a\u0442\u043e\u043d\u043e\u0444\u0438\u0437\u0438\u043a\u0430
p744
(lp745
g3
asV\u0433\u0430\u043b\u044c\u0432\u0430\u043d\u043e\u043a\u0430\u0443\u0441\u0442\u0438\u043a\u0430
p746
(lp747
g3
asV\u0433\u0438\u0441\u0442\u043e\u0433\u0435\u043d\u0435\u0437
p748
(lp749
g3
asV\u0444\u0430\u0437\u043e\u043c\u0435\u0442\u0440
p750
(lp751
g3
asV\u0434\u0438\u0430\u043b\u0435\u043a\u0442\u043e\u043b\u043e\u0433\u0438\u044f
p752
(lp753
g3
asV\u0431\u0438\u043e\u0433\u0435\u043e\u0444\u0438\u0437\u0438\u043a\u0430
p754
(lp755
g3
asV\u0438\u0437\u043e\u0431\u0430\u0437\u0430
p756
(lp757
g3
asV\u0433\u043e\u043c\u0435\u043e\u043f\u0430\u0442\u0438\u044f
p758
(lp759
g3
asV\u043c\u043e\u043d\u043e\u0444\u0430\u0433
p760
(lp761
g3
asV\u0444\u043e\u0442\u043e\u043c\u0435\u0442\u0440
p762
(lp763
g3
asV\u043c\u0435\u0437\u043e\u0445\u0438\u043c\u0438\u044f
p764
(lp765
g3
asV\u0442\u0440\u0438\u043f\u0430\u043d\u043e\u0441\u043e\u043c\u0430
p766
(lp767
g3
asV\u0442\u0435\u0440\u0440\u0430\u043a\u043e\u0442\u0430
p768
(lp769
g3
asV\u0438\u043d\u0444\u0430\u0443\u043d\u0430
p770
(lp771
g3
asV\u0442\u0440\u0430\u0433\u0438\u043a\u043e\u043c\u0435\u0434\u0438\u044f
p772
(lp773
g3
asV\u0444\u0438\u0441\u0433\u0430\u0440\u043c\u043e\u043d\u0438\u044f
p774
(lp775
g3
asV\u0430\u0432\u0442\u043e\u0432\u043e\u043a\u0437\u0430\u043b
p776
(lp777
g3
asV\u0444\u043e\u0442\u043e\u0445\u0440\u043e\u043d\u0438\u043a\u0430
p778
(lp779
g3
asV\u0433\u0438\u043f\u0435\u0440\u0433\u0438\u0434\u0440\u043e\u0437
p780
(lp781
g3
asV\u0442\u0435\u043b\u0435\u043c\u0435\u0442\u0440\u0438\u044f
p782
(lp783
g3
asV\u0442\u0440\u0438\u0443\u043c\u0432\u0438\u0440\u0430\u0442
p784
(lp785
g3
ag3
asV\u043d\u0430\u043c\u0430\u0445\u0440\u0430\u043c
p786
(lp787
g3
asV\u0442\u0435\u0440\u0440\u0435\u043d\u043a\u0443\u0440
p788
(lp789
g3
asV\u043c\u0435\u0442\u0438\u043b\u0431\u0435\u043d\u0437\u043e\u043b
p790
(lp791
g3
asV\u0433\u0438\u043f\u0435\u0440\u0442\u0435\u0440\u043c\u0438\u044f
p792
(lp793
g3
asV\u0430\u0432\u0438\u0430\u043a\u043e\u043d\u0441\u0442\u0440\u0443\u043a\u0442\u043e\u0440
p794
(lp795
g3
asV\u044d\u043b\u0435\u043a\u0442\u0440\u043a\u0430\u0440\u0434\u0438\u043e\u0433\u0440\u0430\u0444
p796
(lp797
g3
asV\u0442\u0435\u0440\u0438\u043d\u0434\u0436\u0435\u043a
p798
(lp799
g3
asV\u0430\u0432\u0442\u043e\u043f\u043e\u0440\u0442\u0440\u0435\u0442
p800
(lp801
g3
asV\u0430\u0440\u0445\u0438\u043f\u0435\u043b\u0430\u0433
p802
(lp803
g3
asV\u0430\u0432\u0442\u043e\u043a\u043b\u0443\u0431
p804
(lp805
g3
asV\u043c\u0438\u043a\u0440\u043e\u043c\u0430\u0440\u043a\u0435\u0442\u0438\u043d\u0433
p806
(lp807
g3
asV\u044d\u043b\u0435\u043a\u0442\u0440\u0441\u0438\u043d\u0442\u0435\u0437
p808
(lp809
g3
asV\u0437\u043e\u043e\u0446\u0435\u043d\u043e\u0437
p810
(lp811
g3
asV\u0430\u0432\u0442\u043e\u0440\u0435\u0444\u0435\u0440\u0430\u0442
p812
(lp813
g3
asV\u043c\u043e\u043d\u043e\u0434\u0440\u0430\u043c\u0430
p814
(lp815
g3
asV\u0438\u043d\u0444\u0438\u043b\u044c\u0442\u0440\u0430\u0446\u0438\u044f
p816
(lp817
g3
asV\u0442\u0438\u0443\u0440\u043e\u0446\u0438\u043b\u043b
p818
(lp819
g3
asV\u043c\u043e\u043d\u043e\u0446\u0438\u0442
p820
(lp821
g3
asV\u0431\u0438\u043e\u043a\u043e\u043c\u0431\u0438\u043d\u0430\u0442
p822
(lp823
g3
asV\u0442\u0440\u0430\u043d\u0441\u043a\u0440\u0438\u043f\u0446\u0438\u044f
p824
(lp825
g3
asV\u0442\u0440\u0438\u043e\u043b\u0435\u0438\u043d
p826
(lp827
g3
asV\u0430\u043d\u0442\u0438\u043f\u0438\u0440\u0438\u043d
p828
(lp829
g3
asV\u0430\u043a\u0442\u0438\u043d\u043e\u043c\u0435\u0442\u0440\u0438\u044f
p830
(lp831
g3
asV\u0433\u0438\u0434\u0440\u043e\u0442\u0435\u0445\u043d\u0438\u043a
p832
(lp833
g3
asV\u043f\u0430\u0440\u0430\u043b\u0438\u043d\u0433\u0432\u0438\u0441\u0442\u0438\u043a\u0430
p834
(lp835
g3
asV\u043c\u0435\u043b\u0430\u043d\u043e\u043c\u0430
p836
(lp837
g3
asV\u043c\u0435\u0442\u0438\u043b\u0430\u0446\u0435\u0442\u0430\u0442
p838
(lp839
g3
asV\u0438\u0440\u0438\u0434\u043e\u0434\u0438\u0430\u0433\u043d\u043e\u0441\u0442\u0438\u043a\u0430
p840
(lp841
g3
asV\u0433\u0438\u0434\u0440\u043e\u043a\u043e\u0440\u0442\u0438\u0437\u043e\u043d
p842
(lp843
g3
asV\u0431\u0438\u043e\u043c\u0430\u0441\u0441\u0430
p844
(lp845
g3
asV\u043f\u043e\u0441\u0442\u0440\u0443\u043a\u0442\u0443\u0440\u0430\u043b\u0438\u0437\u043c
p846
(lp847
g3
asV\u0433\u0438\u043f\u0435\u0440\u0442\u043e\u043d\u0438\u044f
p848
(lp849
g3
asV\u043c\u0438\u043a\u0440\u043e\u0441\u0435\u0439\u0441\u043c
p850
(lp851
g3
asV\u0445\u043b\u043e\u0440\u043f\u0438\u043a\u0440\u0438\u043d
p852
(lp853
g3
asV\u043f\u0441\u0438\u0445\u0440\u043e\u043c\u0435\u0442\u0440
p854
(lp855
g3
asV\u0430\u0432\u0438\u0430\u043c\u043e\u0434\u0435\u043b\u044c
p856
(lp857
g3
asV\u0433\u0438\u0434\u0440\u043e\u043d\u0430\u0441\u043e\u0441
p858
(lp859
g3
asV\u0431\u0438\u043e\u0442\u0435\u0445\u043d\u0438\u044f
p860
(lp861
g3
asV\u0442\u0438\u0440\u0438\u0441\u0442\u043e\u0440
p862
(lp863
g3
asV\u0438\u043c\u043c\u0443\u043d\u043e\u0442\u0435\u0440\u0430\u043f\u0438\u044f
p864
(lp865
g3
asV\u043c\u043e\u0442\u043e\u044d\u0441\u0442\u0430\u0444\u0435\u0442\u0430
p866
(lp867
g3
asV\u0433\u0435\u043e\u0442\u0435\u0440\u043c\u0438\u044f
p868
(lp869
g3
asV\u043c\u0435\u0442\u0430\u0437\u0438\u0434
p870
(lp871
g3
asV\u0433\u0438\u0441\u0442\u043e\u0445\u0438\u043c\u0438\u044f
p872
(lp873
g3
asV\u0442\u0435\u043e\u0441\u043e\u0444\u0438\u044f
p874
(lp875
g3
asV\u0430\u043a\u0432\u0430\u043c\u0435\u0442\u0440\u0438\u044f
p876
(lp877
g3
asV\u0442\u043e\u043f\u043e\u043d\u0438\u043c\u0438\u043a
p878
(lp879
g3
asV\u043a\u0430\u0440\u043f\u043e\u043b\u043e\u0433\u0438\u044f
p880
(lp881
g3
asV\u0442\u0440\u043e\u0444\u043e\u0431\u043b\u0430\u0441\u0442
p882
(lp883
g3
asV\u0433\u0430\u043c\u0435\u0442\u043e\u0446\u0438\u0442
p884
(lp885
g3
asV\u043c\u0438\u043d\u0435\u0440\u0430\u0433\u0440\u0430\u0444\u0438\u044f
p886
(lp887
g3
asV\u0442\u043e\u043f\u043e\u043d\u0438\u043c\u0438\u044f
p888
(lp889
g3
asV\u0431\u0438\u043e\u0433\u0440\u0430\u0444\u0438\u044f
p890
(lp891
g3
asV\u044d\u043f\u0438\u0444\u0430\u0443\u043d\u0430
p892
(lp893
g3
asV\u0445\u043e\u0441\u0442\u043c\u043e\u0434\u0443\u043b\u044c
p894
(lp895
g3
asV\u0444\u0438\u0437\u0438\u043e\u0433\u043d\u043e\u043c\u0438\u043a\u0430
p896
(lp897
g3
asV\u0430\u0433\u0440\u043e\u0442\u0435\u0445\u043d\u0438\u043a\u0430
p898
(lp899
g3
asV\u0442\u043e\u043f\u043e\u0433\u0440\u0430\u0444
p900
(lp901
g3
asV\u0433\u0438\u0434\u0440\u043e\u0430\u044d\u0440\u043e\u043c\u0435\u0445\u0430\u043d\u0438\u043a\u0430
p902
(lp903
g3
asV\u0442\u0435\u043b\u0435\u0433\u0440\u0430\u0444\u0438\u044f
p904
(lp905
g3
asV\u0433\u0435\u043c\u043e\u043b\u0438\u0437
p906
(lp907
g3
asV\u043f\u0430\u043d\u0438\u0441\u043b\u0430\u043c\u0438\u0441\u0442
p908
(lp909
g3
asV\u043d\u0435\u043e\u0442\u0435\u043a\u0442\u043e\u043d\u0438\u043a\u0430
p910
(lp911
g3
asV\u0438\u043c\u0438\u0434\u0436\u0435\u043e\u043b\u043e\u0433\u0438\u044f
p912
(lp913
g3
asV\u043c\u0435\u0442\u0440\u043e\u043f\u043e\u043b\u0438\u0442\u0435\u043d
p914
(lp915
g3
asV\u0440\u0430\u0434\u0438\u043e\u0430\u043f\u043f\u0430\u0440\u0430\u0442
p916
(lp917
g3
asV\u0433\u0438\u0434\u0440\u043e\u043c\u043e\u043d\u0438\u0442\u043e\u0440
p918
(lp919
g3
asV\u0433\u0435\u0442\u0435\u0440\u043e\u0437\u0438\u0441
p920
(lp921
g3
asV\u0442\u0435\u043b\u0435\u043a\u0430\u043c\u0435\u0440\u0430
p922
(lp923
g3
asV\u0433\u043e\u043d\u0438\u043e\u043c\u0435\u0442\u0440
p924
(lp925
g3
asV\u0430\u0432\u0442\u043e\u0441\u0435\u0440\u0432\u0438\u0441
p926
(lp927
g3
asV\u0431\u0438\u043e\u0441\u0444\u0435\u0440\u043e\u043b\u043e\u0433\u0438\u044f
p928
(lp929
g3
asV\u0442\u0443\u0440\u0431\u043e\u043b\u0435\u0442
p930
(lp931
g3
asV\u043d\u0435\u043e\u0440\u0435\u0430\u043b\u0438\u0437\u043c
p932
(lp933
g3
asV\u0440\u0430\u0434\u0438\u043e\u0442\u0435\u043b\u0435\u0444\u043e\u043d
p934
(lp935
g3
asV\u0430\u0432\u0438\u0430\u0442\u0435\u0445\u043d\u0438\u043a\u0443\u043c
p936
(lp937
g3
asV\u0433\u0435\u043e\u0444\u0438\u0437\u0438\u043a
p938
(lp939
g3
asV\u0433\u0430\u0441\u0442\u0440\u043e\u044d\u043d\u0442\u0435\u0440\u0438\u0442
p940
(lp941
g3
asV\u0442\u0440\u0438\u043f\u043b\u0435\u043a\u0441
p942
(lp943
g3
asV\u0431\u0440\u043e\u043d\u0445\u043e\u043f\u043d\u0435\u0432\u043c\u043e\u043d\u0438\u044f
p944
(lp945
g3
asV\u0440\u0430\u0434\u0438\u043e\u0445\u0438\u043c\u0438\u044f
p946
(lp947
g3
asV\u043f\u0430\u043b\u0435\u043e\u0431\u043e\u0442\u0430\u043d\u0438\u043a\u0430
p948
(lp949
g3
asV\u0442\u0440\u0430\u043d\u0441\u0444\u0435\u043a\u0446\u0438\u044f
p950
(lp951
g3
asV\u0433\u0435\u043c\u0430\u0442\u0443\u0440\u0438\u044f
p952
(lp953
g3
asV\u0433\u0438\u0434\u0440\u043e\u044d\u043a\u0441\u0442\u0440\u0443\u0437\u0438\u044f
p954
(lp955
g3
asV\u0431\u0430\u0440\u043e\u043a\u0430\u043c\u0435\u0440\u0430
p956
(lp957
g3
asV\u0430\u0433\u0440\u043e\u0444\u0438\u0440\u043c\u0430
p958
(lp959
g3
asV\u0433\u0438\u043f\u043d\u043e\u043f\u0435\u0434\u0438\u044f
p960
(lp961
g3
asV\u0433\u0438\u0434\u0440\u043e\u0433\u0435\u043e\u043b\u043e\u0433\u0438\u044f
p962
(lp963
g3
asV\u0434\u0435\u043d\u0434\u0440\u043e\u0446\u0438\u0442
p964
(lp965
g3
asV\u0442\u0440\u0438\u043f\u0442\u043e\u0444\u0430\u043d
p966
(lp967
g3
asV\u0432\u0438\u0434\u0435\u043e\u0442\u0435\u043b\u0435\u0444\u043e\u043d
p968
(lp969
g3
asV\u0442\u043e\u043f\u043e\u0445\u0438\u043c\u0438\u044f
p970
(lp971
g3
asV\u0442\u0438\u0430\u043c\u0438\u043d
p972
(lp973
g3
asV\u043d\u0435\u043e\u044d\u043d\u0446\u0435\u0444\u0430\u043b\u043e\u043d
p974
(lp975
g3
asV\u0430\u0432\u0442\u043e\u043b\u0430\u0432\u043a\u0430
p976
(lp977
g3
asV\u043c\u0438\u0435\u043b\u043e\u0446\u0438\u0442
p978
(lp979
g3
asV\u0433\u0438\u0430\u043b\u043e\u043f\u043b\u0430\u0437\u043c\u0430
p980
(lp981
g3
asV\u0433\u0438\u0434\u0440\u043e\u043c\u0435\u0442\u0435\u043e\u0440\u043e\u043b\u043e\u0433\u0438\u044f
p982
(lp983
g3
asV\u0433\u0435\u043c\u043e\u0441\u043f\u043e\u0440\u0438\u0434\u0438\u043d
p984
(lp985
g3
asV\u043e\u0442\u043e\u0441\u043a\u043b\u0435\u0440\u043e\u0437
p986
(lp987
g3
asV\u043c\u043e\u043d\u043e\u0440\u0435\u043b\u044c\u0441
p988
(lp989
g3
asV\u0442\u043e\u043c\u043e\u0433\u0440\u0430\u0444\u0438\u044f
p990
(lp991
g3
asV\u0433\u0438\u043f\u043e\u0441\u0442\u0430\u0437
p992
(lp993
g3
asV\u0444\u043e\u0442\u043e\u043c\u043e\u043d\u0442\u0430\u0436
p994
(lp995
g3
asV\u0430\u043d\u0433\u0438\u043e\u043c\u0430
p996
(lp997
g3
asV\u0433\u0435\u043c\u043e\u0446\u0438\u0442\u043e\u043f\u043e\u044d\u0437
p998
(lp999
g3
asV\u043f\u0430\u043b\u0435\u043e\u043a\u043b\u0438\u043c\u0430\u0442\u043e\u043b\u043e\u0433\u0438\u044f
p1000
(lp1001
g3
asV\u0438\u043c\u043c\u0443\u043d\u0445\u0438\u043c\u0438\u044f
p1002
(lp1003
g3
asV\u0438\u043d\u0434\u0435\u0442\u0435\u0440\u043c\u0438\u043d\u0438\u0437\u043c
p1004
(lp1005
g3
asV\u0442\u0435\u0440\u0440\u0430\u043c\u0438\u0446\u0438\u043d
p1006
(lp1007
g3
asV\u043c\u0438\u043a\u0440\u043e\u0441\u0445\u0435\u043c\u0430
p1008
(lp1009
g3
asV\u043c\u043e\u0440\u0444\u043e\u0433\u0435\u043d\u0435\u0437
p1010
(lp1011
g3
asV\u0433\u0438\u0434\u0440\u043e\u0442\u043e\u0440\u0430\u043a\u0441
p1012
(lp1013
g3
asV\u044d\u043d\u0430\u043d\u0442\u0438\u043e\u0442\u0440\u043e\u043f\u0438\u044f
p1014
(lp1015
g3
asV\u0433\u0438\u0434\u0440\u043e\u0433\u0435\u043d\u0435\u0437
p1016
(lp1017
g3
asV\u0430\u0441\u0442\u0440\u043e\u043d\u0430\u0432\u0442\u0438\u043a\u0430
p1018
(lp1019
g3
asV\u0438\u043d\u0442\u0435\u0440\u043f\u0440\u0435\u0442\u043e\u0441\u043a\u043e\u043f
p1020
(lp1021
g3
asV\u0442\u0438\u043f\u043e\u0433\u0440\u0430\u0444\u0438\u044f
p1022
(lp1023
g3
asV\u0434\u0435\u043d\u0434\u0440\u043e\u043b\u043e\u0433\u0438\u044f
p1024
(lp1025
g3
asV\u0433\u0438\u043f\u0435\u0440\u0442\u0440\u043e\u0444\u0438\u044f
p1026
(lp1027
g3
asV\u043c\u0430\u043a\u0440\u043e\u043a\u0438\u043d\u0435\u0442\u0438\u043a\u0430
p1028
(lp1029
g3
asV\u0431\u0438\u043e\u043a\u043b\u0438\u043c\u0430\u0442\u043e\u043b\u043e\u0433\u0438\u044f
p1030
(lp1031
g3
asV\u0438\u043d\u0442\u0435\u0433\u0440\u0438\u043c\u0435\u0442\u0440
p1032
(lp1033
g3
asV\u0442\u0435\u0440\u0438\u043e\u043b\u043e\u0433\u0438\u044f
p1034
(lp1035
g3
asV\ufeff\u0430\u0432\u0430\u043d\u0433\u0430\u0440\u0434
p1036
(lp1037
g3
asV\u0430\u043d\u0442\u0438\u043b\u043e\u0433\u0438\u0437\u043c
p1038
(lp1039
g3
asV\u0433\u0438\u0433\u0430\u043d\u0442\u043e\u043f\u0438\u0442\u0435\u043a
p1040
(lp1041
g3
asV\u0431\u0430\u0440\u043e\u0433\u0440\u0430\u043c\u043c\u0430
p1042
(lp1043
g3
asV\u043c\u0430\u0433\u043d\u0438\u0442\u043e\u0431\u0438\u043e\u043b\u043e\u0433\u0438\u044f
p1044
(lp1045
g3
asV\u043f\u0440\u043e\u0442\u043e\u0440\u0435\u043d\u0435\u0441\u0441\u0430\u043d\u0441
p1046
(lp1047
g3
asV\u043c\u043e\u043d\u043e\u043f\u043e\u043b\u0438\u044f
p1048
(lp1049
g3
asV\u0433\u043b\u044e\u043a\u0430\u0433\u043e\u043d
p1050
(lp1051
g3
asV\u044d\u043d\u0434\u043e\u043e\u0441\u043c\u043e\u0441
p1052
(lp1053
g3
asV\u0431\u0430\u0440\u043e\u043c\u0435\u0442\u0440
p1054
(lp1055
g3
asV\u0442\u0440\u0430\u0445\u0435\u043e\u0442\u043e\u043c\u0438\u044f
p1056
(lp1057
g3
asV\u0430\u043c\u0438\u043d\u043e\u043f\u0435\u043f\u0442\u0438\u0434\u0430\u0437\u0430
p1058
(lp1059
g3
asV\u043c\u0438\u043a\u0440\u043e\u044d\u043b\u0435\u043c\u0435\u043d\u0442
p1060
(lp1061
g3
asV\u044d\u043b\u0435\u043a\u0442\u0440\u043e\u043d\u043e\u0433\u0440\u0430\u0444\u0438\u044f
p1062
(lp1063
g3
asV\u0442\u0440\u0438\u044d\u0442\u0430\u0437\u0438\u043d
p1064
(lp1065
g3
asV\u0442\u0430\u043a\u0441\u043e\u043c\u0435\u0442\u0440
p1066
(lp1067
g3
asV\u0433\u043b\u043e\u0442\u0442\u043e\u0433\u0435\u043d\u0435\u0437
p1068
(lp1069
g3
asV\u0433\u0438\u043f\u0435\u0440\u043e\u043d\u0438\u043c
p1070
(lp1071
g3
asV\u043c\u0435\u0442\u0430\u0444\u043e\u0440\u0430
p1072
(lp1073
g3
asV\u0442\u0435\u043e\u0442\u0430\u043d\u0438\u043d
p1074
(lp1075
g3
asV\u0430\u044d\u0440\u043e\u043a\u043b\u0443\u0431
p1076
(lp1077
g3
asV\u0438\u0437\u043e\u043c\u0435\u0440\u0438\u044f
p1078
(lp1079
g3
asV\u0442\u0435\u0445\u043c\u0438\u043d\u0438\u043c\u0443\u043c
p1080
(lp1081
g3
asV\u0433\u0435\u0440\u0438\u0430\u0442\u0440\u0438\u044f
p1082
(lp1083
g3
asV\u0432\u0438\u043d\u0434\u0441\u0435\u0440\u0444
p1084
(lp1085
g3
asV\u0431\u0438\u043e\u044d\u043d\u0435\u0440\u0433\u0435\u0442\u0438\u043a\u0430
p1086
(lp1087
g3
asV\u0437\u043e\u043e\u0433\u0435\u043e\u0433\u0440\u0430\u0444\u0438\u044f
p1088
(lp1089
g3
asV\u0433\u0430\u0441\u0442\u0440\u043e\u043b\u044c
p1090
(lp1091
g3
asV\u044d\u043a\u0441\u0442\u0440\u0430\u0441\u0435\u043d\u0441
p1092
(lp1093
g3
asV\u0442\u0440\u0438\u0445\u0438\u043d\u0435\u043b\u043b\u0435\u0437
p1094
(lp1095
g3
asV\u043c\u0430\u0441\u0442\u043e\u043f\u0430\u0442\u0438\u044f
p1096
(lp1097
g3
asV\u0441\u0443\u0440\u0434\u043e\u043a\u0430\u043c\u0435\u0440\u0430
p1098
(lp1099
g3
asV\u0431\u0438\u043e\u043c\u0435\u0445\u0430\u043d\u0438\u043a\u0430
p1100
(lp1101
g3
asV\u0442\u0435\u0440\u043c\u043e\u044d\u043b\u0435\u043c\u0435\u043d\u0442
p1102
(lp1103
g3
asV\u0433\u043e\u043c\u0438\u043d\u0438\u0434
p1104
(lp1105
g3
asV\u0431\u0438\u043e\u0433\u0435\u043e\u0446\u0435\u043d\u043e\u043b\u043e\u0433\u0438\u044f
p1106
(lp1107
g3
asV\u0438\u043c\u043c\u0443\u043d\u043e\u0433\u0435\u043d\u0435\u0442\u0438\u043a\u0430
p1108
(lp1109
g3
asV\u0442\u0435\u043b\u0435\u0444\u043e\u043d\u043e\u0433\u0440\u0430\u043c\u043c\u0430
p1110
(lp1111
g3
asV\u043c\u043e\u043d\u043e\u0446\u0438\u043a\u043b
p1112
(lp1113
g3
asV\u043c\u0438\u043a\u0440\u043e\u043f\u0440\u043e\u0433\u0440\u0430\u043c\u043c\u0430
p1114
(lp1115
g3
asV\u0432\u0438\u0442\u0430\u043c\u0438\u043d\u043e\u043b\u043e\u0433\u0438\u044f
p1116
(lp1117
g3
asV\u0442\u0440\u0438\u043f\u0430\u043d\u043e\u0437\u043e\u043c\u043e\u0437
p1118
(lp1119
g3
asV\u043c\u043e\u043d\u043e\u0440\u0438\u043c
p1120
(lp1121
g3
asV\u0430\u043c\u0438\u043d\u043e\u0442\u0440\u0430\u043d\u0441\u0444\u0435\u0440\u0430\u0437\u0430
p1122
(lp1123
g3
asV\u043c\u0438\u043a\u0440\u043e\u0431\u0430\u043a\u0442\u0435\u0440\u0438\u044f
p1124
(lp1125
g3
asV\u0430\u0433\u0440\u043e\u044d\u043a\u043e\u043b\u043e\u0433\u0438\u044f
p1126
(lp1127
g3
asV\u0433\u0435\u0440\u043e\u043d\u0442\u043e\u043b\u043e\u0433\u0438\u044f
p1128
(lp1129
g3
asV\u0442\u0435\u0440\u043c\u043e\u043c\u0435\u0442\u0440
p1130
(lp1131
g3
asV\u0433\u0438\u0433\u0430\u0431\u0430\u0439\u0442
p1132
(lp1133
g3
asV\u044d\u043b\u0435\u043a\u0442\u0440\u043c\u0430\u0433\u043d\u0438\u0442
p1134
(lp1135
g3
asV\u0442\u043e\u043f\u043e\u043b\u043e\u0433\u0438\u044f
p1136
(lp1137
g3
asV\u0430\u0442\u043e\u043c\u043e\u0445\u043e\u0434
p1138
(lp1139
g3
asV\u0442\u0440\u0438\u043b\u043e\u0433\u0438\u044f
p1140
(lp1141
g3
asV\u043d\u0435\u043e\u0433\u0435\u0439
p1142
(lp1143
g3
asV\u0433\u0435\u0440\u043e\u043d\u0442\u043e\u043a\u0440\u0430\u0442\u0438\u044f
p1144
(lp1145
g3
asV\u043d\u0435\u043e\u0433\u0435\u043d
p1146
(lp1147
g3
asV\u0430\u044d\u0440\u043e\u0433\u0435\u043e\u0444\u0438\u0437\u0438\u043a\u0430
p1148
(lp1149
g3
asV\u044d\u0434\u0430\u0442\u043e\u043f
p1150
(lp1151
g3
asV\u043e\u0440\u0442\u0433\u0442\u0435\u0445\u043d\u0438\u043a\u0430
p1152
(lp1153
g3
asV\u0432\u0438\u0440\u0443\u0441\u043e\u043b\u043e\u0433\u0438\u044f
p1154
(lp1155
g3
asV\u0442\u0440\u043e\u0444\u043e\u0441\u043f\u043e\u0440\u043e\u0444\u0438\u043b\u043b
p1156
(lp1157
g3
asV\u043f\u043e\u043b\u0438\u044d\u0442\u0438\u043b\u0435\u043d
p1158
(lp1159
g3
asV\u0442\u043e\u043d\u043e\u043f\u043b\u0430\u0441\u0442
p1160
(lp1161
g3
asV\u0432\u0430\u0442\u0435\u0440\u0436\u0430\u043a\u0435\u0442
p1162
(lp1163
g3
asV\u044d\u0442\u043d\u043e\u043f\u0441\u0438\u0445\u043e\u043b\u043e\u0433\u0438\u044f
p1164
(lp1165
g3
asV\u0442\u0440\u043e\u043c\u0431\u043e\u0444\u043b\u0435\u0431\u0438\u0442
p1166
(lp1167
g3
asV\u0433\u0430\u0441\u0442\u0440\u043e\u0446\u0435\u043b\u044c
p1168
(lp1169
g3
asV\u0433\u0438\u0434\u0440\u043e\u0434\u043e\u043c\u043a\u0440\u0430\u0442
p1170
(lp1171
g3
asV\u043c\u0438\u043a\u0440\u043e\u0430\u0444\u0438\u0448\u0430
p1172
(lp1173
g3
asV\u0433\u0435\u043b\u0438\u043e\u043a\u043e\u043d\u0446\u0435\u043d\u0442\u0440\u0430\u0442\u043e\u0440
p1174
(lp1175
g3
asV\u0438\u043d\u0444\u0440\u0430\u043c\u0438\u043a\u0440\u043e\u0431\u0438\u043e\u043b\u043e\u0433\u0438\u044f
p1176
(lp1177
g3
asV\u0433\u0438\u0434\u0440\u043e\u0434\u0438\u043d\u0430\u043c\u0438\u043a\u0430
p1178
(lp1179
g3
asV\u0433\u0435\u043b\u0438\u043e\u0433\u0435\u043e\u0444\u0438\u0437\u0438\u043a\u0430
p1180
(lp1181
g3
asV\u0444\u043e\u0442\u043e\u0433\u0440\u0430\u0444\u0438\u044f
p1182
(lp1183
g3
asV\u0433\u043b\u043e\u0442\u0442\u043e\u0445\u0440\u043e\u043d\u043e\u043b\u043e\u0433\u0438\u044f
p1184
(lp1185
g3
asV\u0433\u0438\u0434\u0440\u043e\u043c\u0435\u0445\u0430\u043d\u0438\u043a\u0430
p1186
(lp1187
g3
asV\u0444\u0438\u0437\u0438\u043e\u0442\u0435\u0440\u0430\u043f\u0438\u044f
p1188
(lp1189
g3
asV\u0444\u043e\u0442\u043e\u0442\u0435\u0440\u0430\u043f\u0438\u044f
p1190
(lp1191
g3
asV\u0442\u0435\u043b\u0435\u0432\u0438\u0437\u0438\u044f
p1192
(lp1193
g3
asV\u043c\u0438\u0435\u043b\u043e\u043f\u043e\u044d\u0437
p1194
(lp1195
g3
asV\u043c\u0435\u0442\u0430\u0441\u043e\u043c\u0430\u0442\u0438\u0442
p1196
(lp1197
g3
asV\u043a\u0430\u043b\u043e\u0440\u0438\u043c\u0435\u0442\u0440
p1198
(lp1199
g3
asV\u0438\u0437\u043e\u0445\u043e\u0440\u0430
p1200
(lp1201
g3
asV\u0442\u0435\u043d\u0441\u0430\u0442\u0440\u0438\u043d
p1202
(lp1203
g3
asV\u043c\u043e\u0442\u043e\u043a\u043e\u043b\u043e\u043d\u043d\u0430
p1204
(lp1205
g3
asV\u0445\u043b\u043e\u0440\u0442\u0435\u0442\u0440\u0430\u0446\u0438\u043a\u043b\u0438\u043d
p1206
(lp1207
g3
asV\u0433\u0430\u043c\u0435\u0442\u043e\u0433\u0435\u043d\u0435\u0437
p1208
(lp1209
g3
asV\u043f\u043e\u043b\u0438\u0442\u0435\u0445\u043d\u0438\u043a\u0430
p1210
(lp1211
g3
asV\u0442\u0440\u0438\u0433\u0438\u0431\u0440\u0438\u0434
p1212
(lp1213
g3
asV\u043d\u0430\u0442\u0443\u0440\u0444\u0438\u043b\u043e\u0441\u043e\u0444\u0438\u044f
p1214
(lp1215
g3
asV\u043f\u0430\u043b\u0435\u043e\u0430\u043d\u0442\u0440\u043e\u043f\u043e\u043b\u043e\u0433\u0438\u044f
p1216
(lp1217
g3
asV\u043c\u0435\u0437\u0430\u0441\u043e\u043c\u0430
p1218
(lp1219
g3
asV\u0438\u0437\u043e\u0433\u0430\u043c\u0438\u044f
p1220
(lp1221
g3
asV\u0433\u0438\u0433\u0440\u043e\u0441\u043a\u043e\u043f
p1222
(lp1223
g3
asV\u0430\u044d\u0440\u043e\u043f\u043b\u0430\u043d
p1224
(lp1225
g3
asV\u044d\u0442\u0438\u043b\u0435\u043d\u043e\u043a\u0441\u0438\u0434
p1226
(lp1227
g3
asV\u0433\u0438\u0434\u0440\u043e\u043b\u0438\u0437
p1228
(lp1229
g3
asV\u0433\u0435\u043c\u043e\u043c\u0435\u0442\u0440
p1230
(lp1231
g3
asV\u0433\u0438\u043f\u043e\u0433\u0435\u043d
p1232
(lp1233
g3
asV\u0433\u0438\u043f\u0435\u0440\u0433\u0435\u043d\u0435\u0437
p1234
(lp1235
g3
asV\u0442\u0440\u0438\u043f\u0430\u043d\u043e\u0441\u043e\u043c\u043e\u0437
p1236
(lp1237
g3
asV\u0442\u043e\u043a\u043e\u0433\u0440\u0430\u0444
p1238
(lp1239
g3
asV\u0431\u0438\u043e\u0442\u0435\u0445\u043d\u043e\u043b\u043e\u0433\u0438\u044f
p1240
(lp1241
g3
asV\u0431\u0430\u0440\u043e\u0442\u0440\u0430\u0432\u043c\u0430
p1242
(lp1243
g3
asV\u0430\u043d\u0442\u0438\u0432\u0438\u0442\u0430\u043c\u0438\u043d
p1244
(lp1245
g3
asV\u043a\u043b\u0438\u043f\u043c\u0435\u0439\u043a\u0435\u0440
p1246
(lp1247
g3
asV\u043c\u043e\u043d\u043e\u0433\u0438\u0431\u0440\u0438\u0434
p1248
(lp1249
g3
asV\u0445\u043b\u043e\u0440\u0431\u0435\u043d\u0437\u043e\u043b
p1250
(lp1251
g3
asV\u044d\u043b\u0435\u043a\u0442\u0440\u043c\u0435\u0445\u0430\u043d\u0438\u043a
p1252
(lp1253
g3
asV\u0442\u0435\u043b\u043e\u0433\u0440\u0435\u0439\u043a\u0430
p1254
(lp1255
g3
asV\u0430\u0432\u0442\u043e\u0442\u0443\u0440\u0438\u0441\u0442
p1256
(lp1257
g3
asV\u0444\u0438\u0442\u043e\u0433\u043e\u0440\u043c\u043e\u043d
p1258
(lp1259
g3
asV\u0438\u0437\u043e\u043a\u043b\u0438\u043d\u0430\u043b\u044c
p1260
(lp1261
g3
asV\u043c\u0438\u043e\u043a\u0430\u0440\u0434\u0438\u0442
p1262
(lp1263
g3
asV\u0442\u0440\u0438\u0445\u043b\u043e\u0434\u0435\u0440\u043c\u0430
p1264
(lp1265
g3
asV\u0437\u043e\u043e\u0432\u0435\u0442\u0435\u0440\u0438\u043d\u0430\u0440
p1266
(lp1267
g3
asV\u0433\u0435\u0442\u0435\u0440\u043e\u0433\u0440\u0430\u043c\u043c\u0430
p1268
(lp1269
g3
asV\u0441\u0443\u043b\u044c\u0444\u043e\u043a\u0441\u0438\u0434
p1270
(lp1271
g3
asV\u0437\u043e\u043e\u0445\u043e\u0440\u0438\u044f
p1272
(lp1273
g3
asV\u0440\u0430\u0434\u0438\u043e\u0441\u0442\u0443\u0434\u0438\u044f
p1274
(lp1275
g3
asV\u0430\u0433\u0440\u043e\u0431\u0438\u043e\u043b\u043e\u0433\u0438\u044f
p1276
(lp1277
g3
asV\u043f\u043e\u043b\u0438\u0442\u0435\u0445\u043d\u0438\u0437\u0430\u0446\u0438\u044f
p1278
(lp1279
g3
asV\u0438\u0445\u0442\u0438\u043e\u043b\u043e\u0433\u0438\u044f
p1280
(lp1281
g3
asV\u0440\u0430\u0434\u0438\u043e\u044d\u043b\u0435\u043a\u0442\u0440\u043e\u043d\u0438\u043a\u0430
p1282
(lp1283
g3
asV\u0430\u044d\u0440\u043e\u0444\u043e\u0442\u043e\u0442\u043e\u043f\u043e\u0433\u0440\u0430\u0444\u0438\u044f
p1284
(lp1285
g3
asV\u043d\u0435\u0439\u0440\u043e\u043c\u0435\u0434\u0438\u0430\u0442\u043e\u0440
p1286
(lp1287
g3
asV\u043a\u0430\u0440\u0442\u043e\u0433\u0440\u0430\u0444\u0438\u044f
p1288
(lp1289
g3
asV\u0433\u0438\u0434\u0440\u043e\u044d\u043a\u043e\u043b\u043e\u0433\u0438\u044f
p1290
(lp1291
g3
asV\u043c\u0438\u043e\u043a\u0430\u0440\u0434
p1292
(lp1293
g3
asV\u0434\u0435\u0437\u0438\u043d\u0441\u0435\u043a\u0446\u0438\u044f
p1294
(lp1295
g3
asV\u0438\u0434\u0435\u043e\u043b\u043e\u0433\u0438\u044f
p1296
(lp1297
g3
asV\u0444eho\u0431\u043bactap
p1298
(lp1299
g3
asV\u0442\u043e\u043a\u0441\u0438\u043a\u043e\u0437
p1300
(lp1301
g3
asV\u0438\u0437\u043e\u043f\u0440\u043e\u043f\u0438\u043b\u0430\u043c\u0438\u043d
p1302
(lp1303
g3
asV\u044d\u043b\u0435\u043a\u0442\u0440\u043a\u0430\u0440\u0434\u0438\u043e\u0433\u0440\u0430\u043c\u043c\u0430
p1304
(lp1305
g3
asV\u0433\u0435\u043c\u043e\u0433\u0440\u0430\u043c\u043c\u0430
p1306
(lp1307
g3
asV\u0438\u043d\u0442\u0435\u0440\u043c\u0435\u0442\u0430\u043b\u043b\u0438\u0434
p1308
(lp1309
g3
asV\u0430\u0433\u0440\u043e\u0445\u0438\u043c\u0438\u044f
p1310
(lp1311
g3
asV\u0444\u043e\u043d\u043e\u043c\u0435\u0442\u0440
p1312
(lp1313
g3
asV\u0430\u0432\u0442\u043e\u0445\u0442\u043e\u043d
p1314
(lp1315
g3
asV\u0442\u0435\u043b\u0435\u0436\u0443\u0440\u043d\u0430\u043b\u0438\u0441\u0442\u0438\u043a\u0430
p1316
(lp1317
g3
asV\u043c\u0438\u043d\u043e\u043c\u0435\u0442\u043e\u0440
p1318
(lp1319
g3
asV\u043c\u0435\u0442\u0430\u0444\u0430\u0437\u0430
p1320
(lp1321
g3
asV\u0434\u0435\u0441\u043e\u0440\u0431\u0446\u0438\u044f
p1322
(lp1323
g3
asV\u0442\u0435\u043d\u043e\u0440\u0438\u0442
p1324
(lp1325
g3
asV\u043c\u0435\u043b\u043e\u0434\u0435\u043a\u043b\u0430\u043c\u0430\u0442\u043e\u0440
p1326
(lp1327
g3
asV\u044d\u043b\u0435\u043a\u0442\u0440\u043c\u0435\u0445\u0430\u043d\u0438\u043a\u0430
p1328
(lp1329
g3
asV\u043c\u0435\u0442\u0430\u0431\u043b\u0430\u0441
p1330
(lp1331
g3
asV\u0444\u0435\u0440\u0440\u043e\u043c\u0430\u0433\u043d\u0438\u0442
p1332
(lp1333
g3
asV\u043f\u0430\u043b\u0435\u043e\u0432\u0443\u043b\u043a\u0430\u043d\u0438\u0437\u043c
p1334
(lp1335
g3
asV\u043c\u0435\u043b\u043e\u0434\u0440\u0430\u043c\u0430\u0442\u0438\u0437\u043c
p1336
(lp1337
g3
asV\u0433\u0438\u0433\u0440\u043e\u0444\u0438\u043b\u0434\u0435\u0440
p1338
(lp1339
g3
asV\u0434\u0430\u043a\u0442\u0438\u043b\u043e\u0441\u043a\u043e\u043f\u0438\u044f
p1340
(lp1341
g3
asV\u0430\u0432\u0430\u043d\u043f\u043e\u0440\u0442
p1342
(lp1343
g3
asV\u0444\u0435\u0440\u0440\u043e\u0433\u0440\u0430\u0444\u0438\u044f
p1344
(lp1345
g3
asV\u0444\u043e\u0442\u043e\u0430\u043b\u044c\u0431\u043e\u043c
p1346
(lp1347
g3
asV\u0438\u043d\u0442\u0435\u0440\u0432\u043e\u043a\u0430\u043b
p1348
(lp1349
g3
asV\u0442\u0440\u0430\u043d\u0441\u043f\u043e\u0440\u0442\u0438\u0440
p1350
(lp1351
g3
asV\u0444\u043e\u0442\u043e\u043e\u0431\u044a\u0435\u043a\u0442\u0438\u0432
p1352
(lp1353
g3
asV\u043d\u0435\u043e\u0444\u0440\u0435\u0439\u0434\u0438\u0437\u043c
p1354
(lp1355
g3
asV\u0441\u0443\u0440\u0434\u043e\u043f\u0435\u0434\u0430\u0433\u043e\u0433\u0438\u043a\u0430
p1356
(lp1357
g3
asV\u0442\u0440\u0430\u043d\u0441\u043f\u0438\u0440\u0430\u0446\u0438\u044f
p1358
(lp1359
g3
asV\u043f\u0438\u0440\u043e\u043c\u0435\u0442\u0430\u043b\u043b\u0443\u0440\u0433\u0438\u044f
p1360
(lp1361
g3
asV\u0442\u0435\u043b\u0435\u0444\u043e\u043d
p1362
(lp1363
g3
asV\u043d\u0435\u0439\u0440\u043e\u0444\u0438\u0437\u0438\u043e\u043b\u043e\u0433\u0438\u044f
p1364
(lp1365
g3
asV\u043c\u0435\u0433\u0430\u043b\u0430\u043f\u043e\u043b\u0438\u0441
p1366
(lp1367
g3
asV\u043c\u0438\u043a\u0440\u043e\u044d\u043a\u043e\u043d\u043e\u043c\u0438\u043a\u0430
p1368
(lp1369
g3
asV\u0442\u0435\u0440\u0430\u043f\u0438\u044f
p1370
(lp1371
g3
asV\u0430\u0441\u0442\u0440\u043e\u0433\u0440\u0430\u0444
p1372
(lp1373
g3
asV\u0430\u043d\u0430\u0444\u0438\u043b\u0430\u043a\u0441\u0438\u044f
p1374
(lp1375
g3
asV\u0442\u0438\u0444\u043b\u043e\u043f\u0441\u0438\u0445\u043e\u043b\u043e\u0433\u0438\u044f
p1376
(lp1377
g3
asV\u0430\u0432\u0442\u043e\u0431\u0430\u043d
p1378
(lp1379
g3
asV\u043a\u0430\u0431\u043b\u043e\u0433\u0440\u0430\u043c\u043c\u0430
p1380
(lp1381
g3
asV\u0430\u043f\u043e\u0444\u0435\u0440\u043c\u0435\u043d\u0442
p1382
(lp1383
g3
asV\u043f\u043e\u043b\u0438\u044d\u0444\u0438\u0440
p1384
(lp1385
g3
asV\u0438\u0437\u043e\u0431\u0443\u0442\u0438\u043b\u0435\u043d
p1386
(lp1387
g3
asV\u043e\u0442\u043e\u0440\u0438\u043d\u043e\u043b\u0430\u0440\u0438\u043d\u0433\u043e\u043b\u043e\u0433\u0438\u044f
p1388
(lp1389
g3
asV\u043a\u0430\u0440\u0434\u0438\u043e\u0438\u0434\u0430
p1390
(lp1391
g3
asV\u0445\u0435\u043c\u043e\u0444\u043e\u0431\u0438\u044f
p1392
(lp1393
g3
asV\u043f\u043e\u0441\u0442\u0441\u043a\u0440\u0438\u043f\u0442\u0443\u043c
p1394
(lp1395
g3
asV\u0438\u0437\u043e\u0445\u0440\u043e\u043d\u0438\u043a\u0430
p1396
(lp1397
g3
asV\u043f\u043e\u0441\u0442\u043c\u043e\u0434\u0435\u0440\u043d\u0438\u0437\u043c
p1398
(lp1399
g3
asV\u043c\u0438\u0435\u043b\u043e\u0431\u043b\u0430\u0441\u0442
p1400
(lp1401
g3
asV\u043d\u0435\u043e\u043b\u043e\u0433\u0438\u0437\u043c
p1402
(lp1403
g3
asV\u0437\u043e\u043e\u0432\u0435\u0442\u0438\u043d\u0441\u0442\u0438\u0442\u0443\u0442
p1404
(lp1405
g3
asV\u043c\u0435\u0442\u0430\u0433\u0440\u0430\u043c\u043c\u0430\u0442\u0438\u043a\u0430
p1406
(lp1407
g3
asV\u0433\u043b\u0430\u043d\u0434\u0443\u043b\u043e\u0446\u0438\u0442
p1408
(lp1409
g3
asV\u0430\u0441\u0442\u0440\u043e\u0434\u0438\u043d\u0430\u043c\u0438\u043a\u0430
p1410
(lp1411
g3
asV\u0434\u0435\u043c\u043e\u043a\u0440\u0430\u0442\u0438\u044f
p1412
(lp1413
g3
asV\u0433\u0438\u043f\u043e\u0442\u0430\u043a\u0441\u0438\u0441
p1414
(lp1415
g3
asV\u043d\u0435\u043e\u043f\u043e\u0437\u0438\u0442\u0438\u0432\u0438\u0437\u043c
p1416
(lp1417
g3
asV\u0433\u0438\u0434\u0440\u043e\u044d\u043b\u0435\u0432\u0430\u0442\u043e\u0440
p1418
(lp1419
g3
asV\u0433\u0435\u043e\u0441\u0442\u0430\u0442\u0438\u0441\u0442\u0438\u043a\u0430
p1420
(lp1421
g3
asV\u043c\u043e\u043d\u043e\u043f\u043b\u0430\u043d
p1422
(lp1423
g3
asV\u0433\u0435\u043e\u043c\u0435\u0442\u0440\u0438\u044f
p1424
(lp1425
g3
asV\u0442\u0440\u0438\u0433\u043e\u043d\u043e\u043c\u0435\u0442\u0440\u0438\u044f
p1426
(lp1427
g3
asV\u0432\u0430\u043a\u0446\u0438\u043d\u043e\u0442\u0435\u0440\u0430\u043f\u0438\u044f
p1428
(lp1429
g3
asV\u0442\u0435\u0441\u0441\u0438\u0442\u0443\u0440\u0430
p1430
(lp1431
g3
asV\u043c\u0438\u043a\u0440\u043e\u043a\u043b\u0438\u043c\u0430\u0442
p1432
(lp1433
g3
asV\u0442\u043e\u043c\u0430\u0441\u0448\u043b\u0430\u043a
p1434
(lp1435
g3
asV\u0442\u0440\u0438\u044d\u043d\u043e\u0444\u043e\u0440\u043e\u0437
p1436
(lp1437
g3
asV\u0434\u0435\u0433\u0438\u0434\u0440\u043e\u0433\u0435\u043d\u043e\u0437
p1438
(lp1439
g3
asV\u043f\u0435\u0440\u0444\u043e\u043a\u0430\u0440\u0442\u0430
p1440
(lp1441
g3
asV\u0442\u0440\u0430\u043d\u0441\u043b\u044f\u0446\u0438\u044f
p1442
(lp1443
g3
asV\u0430\u043a\u0432\u0430\u0442\u043e\u0440\u0438\u044f
p1444
(lp1445
g3
asV\u0430\u044d\u0440\u043e\u043d\u0430\u0432\u0438\u0433\u0430\u0446\u0438\u044f
p1446
(lp1447
g3
asV\u0444\u0438\u0442\u043e\u0431\u0435\u043d\u0442\u043e\u0441
p1448
(lp1449
g3
asV\u0442\u0438\u043a\u0441\u043e\u0442\u0440\u043e\u043f\u0438\u044f
p1450
(lp1451
g3
asV\u044d\u043a\u043e\u0434\u0438\u043d\u0430\u043c\u0438\u043a\u0430
p1452
(lp1453
g3
asV\u043d\u0435\u043e\u043a\u043e\u043b\u043e\u043d\u0438\u0430\u043b\u0438\u0437\u043c
p1454
(lp1455
g3
asV\u0433\u0438\u0440\u043e\u043a\u043e\u043c\u043f\u0430\u0441
p1456
(lp1457
g3
asV\u0442\u0440\u0430\u043d\u0441\u0444\u043e\u0440\u043c\u0430\u0442\u043e\u0440
p1458
(lp1459
g3
asV\u0433\u0438\u043f\u0435\u0440\u0435\u043c\u0438\u044f
p1460
(lp1461
g3
asV\u043f\u0430\u043d\u0438\u0441\u043b\u0430\u043c\u0438\u0437\u043c
p1462
(lp1463
g3
asV\u0433\u0435\u043d\u043e\u0442\u0438\u043f
p1464
(lp1465
g3
asV\u0442\u0440\u0430\u043d\u0441\u0434\u0443\u043a\u0446\u0438\u044f
p1466
(lp1467
g3
asV\u043c\u043e\u0442\u043e\u0434\u0440\u043e\u043c
p1468
(lp1469
g3
asV\u043c\u043e\u043d\u043e\u0442\u0438\u043f\u0438\u0441\u0442
p1470
(lp1471
g3
asV\u0445\u0440\u043e\u043d\u043e\u043c\u0435\u0442\u0440\u0430\u0436
p1472
(lp1473
g3
asV\u044d\u0442\u043d\u043e\u043f\u043e\u043f\u0443\u043b\u0438\u0437\u043c
p1474
(lp1475
g3
asV\u0442\u0438\u0440\u0430\u043d\u043d\u043e\u0437\u0430\u0432\u0440
p1476
(lp1477
g3
asV\u043c\u0430\u043a\u0440\u043e\u043a\u043e\u0441\u043c\u043e\u0441
p1478
(lp1479
g3
asV\u0444\u0438\u0442\u043e\u0446\u0435\u043d\u043e\u0433\u0435\u043d\u0435\u0437
p1480
(lp1481
g3
asV\u0440\u0430\u0434\u0438\u043e\u0441\u0442\u0430\u043d\u0446\u0438\u044f
p1482
(lp1483
g3
asV\u0433\u0438\u0434\u0440\u043e\u043f\u043e\u043d\u0438\u043a\u0430
p1484
(lp1485
g3
asV\u0433\u0438\u0440\u0443\u0434\u043e\u0442\u0435\u0440\u0430\u043f\u0438\u044f
p1486
(lp1487
g3
asV\u0442\u0438\u043f\u043e\u043b\u043e\u0433\u0438\u044f
p1488
(lp1489
g3
asV\u0432\u0438\u0434\u0435\u043e\u0440\u043e\u043b\u0438\u043a
p1490
(lp1491
g3
asV\u043c\u0438\u0444\u043e\u043b\u043e\u0433\u0438\u044f
p1492
(lp1493
g3
asV\u0433\u0435\u043e\u043b\u043e\u0433\u0438\u044f
p1494
(lp1495
g3
asV\u0444\u043e\u043d\u043e\u043c\u043e\u0440\u0444\u043e\u043b\u043e\u0433\u0438\u044f
p1496
(lp1497
g3
asV\u0430\u0433\u0440\u043e\u043c\u0435\u0442\u0435\u043e\u0440\u043e\u043b\u043e\u0433\u0438\u044f
p1498
(lp1499
g3
asV\u0442\u0435\u0445\u043d\u043e\u043f\u0430\u0440\u043a
p1500
(lp1501
g3
asV\u0438\u043d\u0442\u0435\u0440\u0444\u0430\u0437\u0430
p1502
(lp1503
g3
asV\u0431\u0438\u043e\u0444\u0438\u0437\u0438\u043a\u0430
p1504
(lp1505
g3
asV\u0433\u0435\u0448\u0442\u0430\u043b\u044c\u0442\u043f\u0441\u0438\u0445\u043e\u043b\u043e\u0433\u0438\u044f
p1506
(lp1507
g3
asV\u0443\u043d\u0438\u0432\u0435\u0440\u0441\u0438\u0430\u0434\u0430
p1508
(lp1509
g3
asV\u043b\u0438\u043d\u0433\u0432\u043e\u0441\u0442\u0438\u043b\u0438\u0441\u0442\u0438\u043a\u0430
p1510
(lp1511
g3
asV\u0442\u0440\u0438\u043f\u0442\u043e\u043d
p1512
(lp1513
g3
asV\u0442\u0435\u043a\u0441\u0442\u043e\u043b\u043e\u0433\u0438\u044f
p1514
(lp1515
g3
asV\u0442\u0440\u0438\u043f\u0430\u043d\u043e\u0437\u043e\u043c\u0430
p1516
(lp1517
g3
asV\u0430\u043c\u0438\u043d\u043e\u043f\u043b\u0430\u0441\u0442
p1518
(lp1519
g3
asV\u043c\u0438\u043a\u0440\u043e\u0444\u0430\u0443\u043d\u0430
p1520
(lp1521
g3
asV\u0433\u0435\u043c\u043e\u0444\u0438\u043b\u0438\u044f
p1522
(lp1523
g3
asV\u043a\u0430\u0440\u043f\u043e\u0441\u0444\u043e\u0440\u0430
p1524
(lp1525
g3
asV\u0430\u043d\u0442\u0438\u043a\u043b\u0438\u043d
p1526
(lp1527
g3
asV\u0440\u0430\u0434\u0438\u043e\u043c\u0435\u0442\u0440
p1528
(lp1529
g3
asV\u0442\u0435\u0440\u043c\u043e\u0442\u0435\u0440\u0430\u043f\u0438\u044f
p1530
(lp1531
g3
asV\u0430\u0432\u0442\u043e\u0444\u0443\u0440\u0433\u043e\u043d
p1532
(lp1533
g3
asV\u0442\u0443\u0431\u0435\u0440\u043a\u0443\u043b\u043e\u043f\u0440\u043e\u0442\u0435\u0438\u043d
p1534
(lp1535
g3
asV\u043a\u0430\u043b\u043b\u0438\u0433\u0440\u0430\u0444\u0438\u044f
p1536
(lp1537
g3
asV\u0433\u0440\u0430\u0444\u043e\u043c\u0430\u043d\u0438\u044f
p1538
(lp1539
g3
asV\u043d\u0435\u043e\u043f\u043e\u0442\u0438\u0437\u043c
p1540
(lp1541
g3
asV\u044d\u043c\u0431\u0440\u0438\u043e\u0433\u0435\u043d\u0435\u0437
p1542
(lp1543
g3
asV\u0431\u0438\u043e\u0430\u043a\u0443\u0441\u0442\u0438\u043a\u0430
p1544
(lp1545
g3
asV\u0433\u0438\u0434\u0440\u043e\u0433\u0435\u043e\u0434\u0438\u043d\u0430\u043c\u0438\u043a\u0430
p1546
(lp1547
g3
asV\u0433\u0438\u043d\u0435\u043a\u043e\u043c\u043e\u0441\u0442\u0438\u044f
p1548
(lp1549
g3
asV\u0433\u0435\u043c\u0438\u043f\u043b\u0435\u0433\u0438\u044f
p1550
(lp1551
g3
asV\u0434\u0435\u0442\u0440\u0430\u043d\u0441\u043b\u044f\u0442\u043e\u0440
p1552
(lp1553
g3
asV\u0433\u0435\u043b\u0438\u043e\u0442\u0435\u0440\u0430\u043f\u0438\u044f
p1554
(lp1555
g3
asV\u0444\u043e\u0442\u043e\u0440\u0435\u043f\u043e\u0440\u0442\u0435\u0440
p1556
(lp1557
g3
asV\u0430\u043f\u043e\u043d\u0435\u0432\u0440\u043e\u0437
p1558
(lp1559
g3
asV\u043d\u0435\u0439\u0440\u043e\u043a\u0438\u0431\u0435\u0440\u043d\u0435\u0442\u0438\u043a\u0430
p1560
(lp1561
g3
asV\u043c\u0430\u0433\u043d\u0438\u0442\u043e\u043c\u0435\u0442\u0440
p1562
(lp1563
g3
asV\u0433\u0435\u043c\u043e\u0441\u0442\u0430\u0437
p1564
(lp1565
g3
asV\u0433\u043e\u043b\u043e\u0433\u0440\u0430\u0444\u0438\u044f
p1566
(lp1567
g3
asV\u0442\u0435\u043b\u0435\u0436\u0443\u0440\u043d\u0430\u043b\u0438\u0441\u0442
p1568
(lp1569
g3
asV\u0433\u0438\u043f\u0435\u0440\u043f\u043b\u0430\u0437\u0438\u044f
p1570
(lp1571
g3
asV\u044d\u043b\u0435\u043a\u0442\u0440\u043a\u0430\u0440\u0434\u0438\u043e\u0441\u0442\u0438\u043c\u0443\u043b\u044f\u0442\u043e\u0440
p1572
(lp1573
g3
asV\u0442\u043e\u043f\u043e\u0433\u0435\u043d\u0435\u0437\u0438\u044f
p1574
(lp1575
g3
asV\u043c\u0435\u0442\u0438\u043e\u043d\u0438\u043d
p1576
(lp1577
g3
asV\u0434\u044e\u0440\u0430\u043b\u044e\u043c\u0438\u043d\u0438\u0439
p1578
(lp1579
g3
asV\u0442\u0440\u0438\u043f\u0430\u043b\u044c\u043c\u0438\u0442\u0438\u043d
p1580
(lp1581
g3
asV\u0433\u0430\u0441\u0442\u0440\u043e\u043d\u043e\u043c
p1582
(lp1583
g3
asV\u0430\u043f\u043e\u043c\u0438\u043a\u0441\u0438\u0441
p1584
(lp1585
g3
asV\u0433\u0438\u0434\u0440\u043e\u0438\u0437\u043e\u043f\u044a\u0435\u0437\u0434\u0435\u0440
p1586
(lp1587
g3
asV\u0433\u0430\u043b\u044c\u0432\u0430\u043d\u043e\u043c\u0430\u0433\u043d\u0438\u0442
p1588
(lp1589
g3
asV\u0433\u0435\u043e\u0442\u043e\u043f
p1590
(lp1591
g3
asV\u043c\u0438\u0444\u043e\u043d\u0438\u043c
p1592
(lp1593
g3
asV\u043c\u0435\u0434\u0438\u043a\u0430\u043c\u0435\u043d\u0442
p1594
(lp1595
g3
asV\u0434\u0435\u0432\u0430\u043b\u044c\u0432\u0430\u0446\u0438\u044f
p1596
(lp1597
g3
asV\u0442\u0440\u0430\u043d\u0441\u0444\u0435\u0440\u0442-\u0430\u0433\u0435\u043d\u0442
p1598
(lp1599
g3
asV\u0433\u0435\u0440\u043c\u0430\u0444\u0440\u043e\u0434\u0438\u0442
p1600
(lp1601
g3
asV\u043c\u043e\u043d\u043e\u0445\u0440\u043e\u043c\u0430\u0442
p1602
(lp1603
g3
asV\u0432\u0438\u043a\u0442\u0438\u043c\u043e\u043b\u043e\u0433\u0438\u044f
p1604
(lp1605
g3
asV\u044d\u043a\u043e\u043f\u0441\u0438\u0445\u043e\u043b\u043e\u0433\u0438\u044f
p1606
(lp1607
g3
asV\u043a\u0430\u0440\u0434\u0438\u043e\u0441\u043a\u043e\u043f
p1608
(lp1609
g3
asV\u0431\u0430\u0440\u0438\u0441\u0444\u0435\u0440\u0430
p1610
(lp1611
g3
asV\u0430\u0433\u0440\u043e\u0444\u0438\u0437\u0438\u043a\u0430
p1612
(lp1613
g3
asV\u0442\u0440\u043e\u0445\u043e\u0444\u043e\u0440\u0430
p1614
(lp1615
g3
asV\u043f\u0441\u0438\u0445\u043e\u043f\u0430\u0442\u0438\u044f
p1616
(lp1617
g3
asV\u043c\u0435\u0442\u043e\u0434\u043e\u043b\u043e\u0433\u0438\u044f
p1618
(lp1619
g3
asV\u0442\u0440\u0430\u043d\u0441\u0444\u043e\u0440\u043c\u0438\u0437\u043c
p1620
(lp1621
g3
asV\u0430\u043f\u043b\u0430\u0446\u0435\u043d\u0442\u0430\u043b
p1622
(lp1623
g3
asV\u043c\u043e\u043d\u043e\u043a\u043b\u0438\u043d\u0430\u043b\u044c
p1624
(lp1625
g3
asV\u0432\u0438\u0434\u0435\u043e\u0430\u0434\u0430\u043f\u0442\u0435\u0440
p1626
(lp1627
g3
asV\u0441\u0442\u0435\u043d\u043e\u043a\u0430\u0440\u0434\u0438\u044f
p1628
(lp1629
g3
asV\u0442\u0440\u0438\u043f\u043e\u043d\u043e\u043c\u043e\u0437
p1630
(lp1631
g3
asV\u0433\u0438\u0434\u0440\u043e\u0444\u043e\u043d
p1632
(lp1633
g3
asV\u0433\u0438\u0434\u0440\u043e\u043a\u0430\u0440\u0431\u043e\u043d\u0430\u0442\u0442\u0430\u0440
p1634
(lp1635
g3
asV\u0442\u0435\u0442\u0440\u0430\u0446\u0438\u043a\u043b\u0438\u043d
p1636
(lp1637
g3
asV\u0430\u044d\u0440\u043e\u0434\u0438\u043d\u0430\u043c\u0438\u043a\u0430
p1638
(lp1639
g3
asV\u0439\u043e\u0434\u043e\u0444\u043e\u0440\u043c
p1640
(lp1641
g3
asV\u0433\u0435\u043e\u0445\u0438\u043c\u0438\u044f
p1642
(lp1643
g3
asV\u043c\u0438\u043a\u0440\u043e\u0444\u043e\u043d
p1644
(lp1645
g3
asV\u043f\u0441\u0438\u0445\u043e\u0442\u0435\u0440\u0430\u043f\u0435\u0432\u0442
p1646
(lp1647
g3
asV\u0442\u0440\u0430\u043d\u0441\u043c\u0438\u0441\u0441\u0438\u044f
p1648
(lp1649
g3
asV\u0433\u0435\u043e\u0445\u0438\u043c\u0438\u043a
p1650
(lp1651
g3
asV\u0438\u0437\u043e\u0433\u043b\u043e\u0441\u0441\u0430
p1652
(lp1653
g3
asV\u043a\u0430\u0440\u0434\u0438\u043e\u0445\u0438\u0440\u0443\u0440\u0433\u0438\u044f
p1654
(lp1655
g3
asV\u0444\u0438\u0437\u0438\u043e\u043a\u0440\u0430\u0442\u0438\u044f
p1656
(lp1657
g3
asV\u043c\u043e\u043d\u043e\u043c\u0435\u0440
p1658
(lp1659
g3
asV\u0433\u043b\u0438\u043a\u043e\u0433\u0435\u043d
p1660
(lp1661
g3
asV\u0433\u0435\u043e\u0431\u0438\u043e\u0441\u0444\u0435\u0440\u0430
p1662
(lp1663
g3
asV\u0433\u0440\u0430\u0432\u0438\u043c\u0435\u0442\u0440
p1664
(lp1665
g3
asV\u043c\u043e\u043d\u043e\u043f\u0441\u043e\u043d\u0438\u044f
p1666
(lp1667
g3
asV\u0430\u043a\u0442\u0438\u043d\u043e\u0433\u0440\u0430\u0444
p1668
(lp1669
g3
asV\u0442\u0440\u0438\u0445\u043e\u0434\u0438\u043d\u0430
p1670
(lp1671
g3
asV\u043c\u043e\u0442\u043e\u043d\u0430\u0440\u0442
p1672
(lp1673
g3
asV\u0430\u0441\u0431\u0435\u0441\u0442\u0446\u0435\u043c\u0435\u043d\u0442
p1674
(lp1675
g3
asV\u0433\u0438\u043f\u043e\u043b\u043e\u0433\u0438\u044f
p1676
(lp1677
g3
asV\u0430\u044d\u0440\u043e\u0442\u0435\u0440\u0430\u043f\u0438\u044f
p1678
(lp1679
g3
asV\u043d\u0435\u043e\u0445\u0430\u0441\u0435\u0434\u0438\u0437\u043c
p1680
(lp1681
g3
asV\u043f\u0430\u043b\u0435\u043e\u0433\u0435\u043e\u043c\u043e\u0440\u0444\u043e\u043b\u043e\u0433\u0438\u044f
p1682
(lp1683
g3
asV\u0438\u043d\u0442\u0440\u043e\u0441\u043a\u043e\u043f\u0438\u044f
p1684
(lp1685
g3
asV\u043c\u0435\u043b\u043e\u0434\u0440\u0430\u043c\u0430
p1686
(lp1687
g3
asV\u043c\u0438\u043d\u0438\u0442\u0440\u044d\u043a
p1688
(lp1689
g3
asV\u043a\u0430\u0432\u0435\u0440\u043d\u043e\u043c\u0435\u0442\u0440\u0438\u044f
p1690
(lp1691
g3
asV\u043c\u0438\u043b\u043b\u0438\u043c\u0435\u0442\u0440\u043e\u0432\u043a\u0430
p1692
(lp1693
g3
asV\u0440\u0430\u0434\u0438\u043e\u0433\u0435\u043e\u043b\u043e\u0433\u0438\u044f
p1694
(lp1695
g3
asV\u0433\u0435\u043e\u0446\u0435\u043d\u0442\u0440
p1696
(lp1697
g3
asV\u0434\u0430\u043a\u0442\u0438\u043b\u043e\u0433\u0440\u0430\u0444\u0438\u044f
p1698
(lp1699
g3
asV\u0441\u0443\u043b\u044c\u0444\u043e\u043b\u0438\u0442
p1700
(lp1701
g3
asV\u043e\u0440\u043d\u0438\u0442\u043e\u0444\u0430\u0443\u043d\u0430
p1702
(lp1703
g3
asV\u0430\u043f\u043b\u0430\u043d\u043e\u0441\u043f\u043e\u0440\u0430
p1704
(lp1705
g3
asV\u043c\u0438\u043a\u0440\u043e\u0444\u0438\u043b\u044c\u043c
p1706
(lp1707
g3
asV\u0430\u0432\u0442\u043e\u043a\u043e\u043b\u043e\u043d\u043d\u0430
p1708
(lp1709
g3
asV\u0444\u0435\u043d\u043e\u043a\u043e\u043f\u0438\u044f
p1710
(lp1711
g3
asV\u043c\u043e\u043d\u043e\u0441\u0438\u043b\u043b\u0430\u0431\u0438\u0437\u043c
p1712
(lp1713
g3
asV\u043d\u0435\u043e\u0431\u0438\u0445\u0435\u0432\u0438\u043e\u0440\u0438\u0437\u043c
p1714
(lp1715
g3
asV\u0430\u043d\u0430\u0444\u0430\u0437\u0430
p1716
(lp1717
g3
asV\u0431\u0438\u043e\u0441\u0442\u0430\u0442\u0438\u0441\u0442\u0438\u043a\u0430
p1718
(lp1719
g3
asV\u0439\u043e\u0434\u0431\u0435\u043d\u0437\u043e\u043b
p1720
(lp1721
g3
asV\u0430\u043d\u0442\u0438\u043c\u043e\u0440\u0444\u0438\u043d
p1722
(lp1723
g3
asV\u043c\u043e\u043d\u043e\u0433\u0440\u0430\u0444\u0438\u044f
p1724
(lp1725
g3
asV\u043c\u0435\u0442\u0435\u043e\u0440\u043e\u043b\u043e\u0433\u0438\u044f
p1726
(lp1727
g3
asV\u043c\u0443\u043b\u044c\u0442\u0438\u0442\u0456\u0437\u0456\u043c
p1728
(lp1729
g3
asV\u044d\u043c\u043f\u0438\u0440\u0438\u043e\u043a\u0440\u0438\u0442\u0438\u043a
p1730
(lp1731
g3
asV\u0431\u0438\u043e\u043f\u0441\u0438\u044f
p1732
(lp1733
g3
asV\u043d\u0435\u0439\u0440\u043e\u043f\u0441\u0438\u0445\u043e\u043b\u043e\u0433\u0438\u044f
p1734
(lp1735
g3
asV\u0433\u0440\u0430\u043c\u043f\u043b\u0430\u0441\u0442\u0438\u043d\u043a\u0430
p1736
(lp1737
g3
asV\u0442\u0440\u0438\u0433\u043b\u0438\u0446\u0435\u0440\u0438\u0434
p1738
(lp1739
g3
asV\u0444\u0435\u043b\u044c\u0434\u043c\u0430\u0440\u0448\u0430\u043b
p1740
(lp1741
g3
asV\u0433\u043e\u043c\u043e\u0437\u0438\u0433\u043e\u0442\u0430
p1742
(lp1743
g3
asV\u043c\u0443\u043b\u044c\u0442\u0438\u043c\u0438\u043b\u043b\u0438\u043e\u043d\u0435\u0440
p1744
(lp1745
g3
asV\u0442\u0435\u043e\u0433\u043e\u043d\u0438\u044f
p1746
(lp1747
g3
asV\u0431\u0438\u043e\u0433\u0435\u043e\u0446\u0435\u043d\u043e\u0437
p1748
(lp1749
g3
asV\u0430\u043a\u0432\u0430\u043b\u0430\u043d\u0433
p1750
(lp1751
g3
asV\u043c\u043e\u0440\u0444\u043e\u0433\u0440\u0430\u0444\u0438\u044f
p1752
(lp1753
g3
asV\u0433\u0438\u0434\u0440\u043e\u0442\u0443\u0440\u0431\u0438\u043d\u0430
p1754
(lp1755
g3
asV\u0438\u0435\u0440\u0430\u0440\u0445
p1756
(lp1757
g3
asV\u0442\u0440\u0430\u0445\u0435\u043e\u0444\u0438\u043b\u0435\u0437
p1758
(lp1759
g3
asV\u0442\u0440\u0438\u0445\u043e\u0444\u0438\u0442\u043e\u043d
p1760
(lp1761
g3
asV\u0433\u0438\u0434\u0440\u043e\u0442\u0435\u0440\u0430\u043f\u0438\u044f
p1762
(lp1763
g3
asV\u044d\u0433\u043e\u043f\u0441\u0438\u0445\u043e\u043b\u043e\u0433\u0438\u044f
p1764
(lp1765
g3
asV\u0438\u043d\u0442\u0435\u0440\u043b\u0438\u043d\u0433\u0432\u0438\u0441\u0442\u0438\u043a\u0430
p1766
(lp1767
g3
asV\u0442\u043e\u043b\u0431\u0443\u0442\u0430\u043c\u0438\u0434
p1768
(lp1769
g3
asV\u0445\u0440\u043e\u043d\u043e\u043c\u0435\u0442\u0440
p1770
(lp1771
g3
asV\u0433\u0435\u043b\u0438\u043e\u0442\u0435\u0445\u043d\u0438\u043a\u0430
p1772
(lp1773
g3
asV\u043c\u043e\u043d\u043e\u0444\u0442\u043e\u043d\u0433
p1774
(lp1775
g3
asV\u0442\u0440\u0438\u043f\u043b\u0435\u0442
p1776
(lp1777
g3
asV\u0433\u0430\u0441\u0442\u0430\u0440\u0431\u0430\u0439\u0442\u0435\u0440
p1778
(lp1779
g3
asV\u0433\u0438\u0434\u0440\u043e\u0446\u0435\u0444\u0430\u043b\u0438\u044f
p1780
(lp1781
g3
asV\u043a\u0430\u0440\u0431\u043e\u043a\u0441\u0438\u043b\u0430\u0437\u0430
p1782
(lp1783
g3
asV\u0431\u0438\u043e\u0445\u043e\u0440
p1784
(lp1785
g3
asV\u0430\u0441\u0442\u0440\u043e\u043d\u0430\u0432\u0438\u0433\u0430\u0446\u0438\u044f
p1786
(lp1787
g3
asV\u043a\u043e\u043d\u0442\u0440\u0440\u0435\u0432\u043e\u043b\u044e\u0446\u0438\u043e\u043d\u0435\u0440
p1788
(lp1789
g3
asV\u043c\u0435\u0442\u0430\u043d\u0430\u0443\u043f\u043b\u0438\u0441
p1790
(lp1791
g3
asV\u0444\u0435\u0440\u0440\u043e\u0441\u043f\u043b\u0430\u0432
p1792
(lp1793
g3
asV\u0442\u0440\u043e\u043f\u043e\u0441\u0444\u0435\u0440\u0430
p1794
(lp1795
g3
asV\u0442\u0440\u0438\u043f\u0442\u0438\u0445
p1796
(lp1797
g3
asV\u0437\u0438\u043d\u0434\u0436\u0430\u043d\u0442\u0440\u043e\u043f
p1798
(lp1799
g3
asV\u0433\u0430\u043c\u0435\u0442\u043e\u0431\u043b\u0430\u0441\u0442
p1800
(lp1801
g3
asV\u043c\u0435\u0437\u043e\u0442\u0435\u043b\u0438\u0439
p1802
(lp1803
g3
asV\u0433\u0438\u0434\u0440\u043e\u0430\u044d\u0440\u043e\u0434\u0440\u043e\u043c
p1804
(lp1805
g3
asV\u0433\u0430\u043b\u043e\u0433\u0435\u043d\u0435\u0437
p1806
(lp1807
g3
asV\u0433\u0435\u043c\u043e\u0434\u0438\u043e\u043b\u0438\u0437
p1808
(lp1809
g3
asV\u0433\u0440\u0430\u043c\u043c\u043e\u0444\u043e\u043d
p1810
(lp1811
g3
asV\u0442\u0435\u043b\u0435\u043f\u0430\u0442\u0438\u044f
p1812
(lp1813
g3
asV\u043f\u0430\u043b\u0435\u043e\u0433\u0438\u0434\u0440\u043e\u0433\u0435\u043e\u043b\u043e\u0433\u0438\u044f
p1814
(lp1815
g3
asV\u043c\u043e\u043d\u043e\u0431\u043b\u0435\u043f\u0441\u0438\u044f
p1816
(lp1817
g3
asV\u0444\u043e\u0442\u043e\u0441\u0438\u043d\u0442\u0435\u0437
p1818
(lp1819
g3
asV\u0433\u0435\u043b\u044c\u043c\u0438\u043d\u0442\u043e\u043b\u043e\u0433\u0438\u044f
p1820
(lp1821
g3
asV\u043f\u0441\u0438\u0445\u043e\u0442\u0435\u0440\u0430\u043f\u0438\u044f
p1822
(lp1823
g3
asV\u0430\u043c\u043f\u0435\u043b\u043e\u0433\u0440\u0430\u0444\u0438\u044f
p1824
(lp1825
g3
asV\u0430\u0432\u0442\u043e\u0442\u0440\u0430\u043d\u0441\u0444\u043e\u0440\u043c\u0430\u0442\u043e\u0440
p1826
(lp1827
g3
asV\u0433\u0435\u043e\u0433\u0438\u0433\u0438\u0435\u043d\u0430
p1828
(lp1829
g3
asV\u0444\u043e\u0442\u043e\u0430\u043f\u043f\u0430\u0440\u0430\u0442
p1830
(lp1831
g3
asV\u0442\u0435\u043f\u043b\u043e\u0445\u043e\u0434
p1832
(lp1833
g3
asV\u0433\u043b\u0438\u043a\u043e\u0437\u0438\u0434
p1834
(lp1835
g3
asV\u043c\u043e\u043d\u043e\u0442\u0435\u0438\u0437\u043c
p1836
(lp1837
g3
asV\u0430\u043d\u0442\u0438\u043a\u043e\u0430\u0433\u0443\u043b\u044f\u043d\u0442
p1838
(lp1839
g3
asV\u043f\u043e\u0441\u0442\u043c\u043e\u0434\u0435\u0440\u043d
p1840
(lp1841
g3
asV\u0431\u0438\u043e\u0441\u0444\u0435\u0440\u0430
p1842
(lp1843
g3
asV\u0430\u043b\u044e\u043c\u0438\u043d\u043e\u0442\u0435\u0440\u043c\u0438\u044f
p1844
(lp1845
g3
asV\u043a\u0432\u0430\u043b\u0438\u043c\u0435\u0442\u0440\u0438\u044f
p1846
(lp1847
g3
asV\u0430\u0432\u0438\u0430\u043a\u043b\u0443\u0431
p1848
(lp1849
g3
asV\u043c\u0435\u0433\u0430\u0444\u043e\u043d
p1850
(lp1851
g3
asV\u0433\u0438\u0434\u0440\u043e\u043b\u043e\u0433\u0438\u044f
p1852
(lp1853
g3
asV\u043c\u0430\u043a\u0440\u043e\u044d\u0432\u043e\u043b\u044e\u0446\u0438\u044f
p1854
(lp1855
g3
asV\u0433\u0438\u043f\u0435\u0440\u0438\u043d\u0444\u043b\u044f\u0446\u0438\u044f
p1856
(lp1857
g3
asV\u0438\u0437\u043e\u043a\u043e\u043b\u043e\u043d
p1858
(lp1859
g3
asV\u0433\u0438\u0434\u0440\u043e\u043c\u0435\u0442\u0430\u043b\u043b\u0443\u0440\u0433\u0438\u044f
p1860
(lp1861
g3
asV\u0438\u043d\u0442\u0440\u0430\u0439\u043e\u0434
p1862
(lp1863
g3
asV\u0433\u0438\u0434\u0440\u043e\u0433\u0435\u043e\u043b\u043e\u0433
p1864
(lp1865
g3
asV\u0437\u043e\u043e\u043a\u0443\u043c\u0430\u0440\u0438\u043d
p1866
(lp1867
g3
asV\u0442\u0440\u0438\u0441\u0442\u0435\u0430\u0440\u0438\u043d
p1868
(lp1869
g3
asV\u0445\u0435\u043c\u043e\u0441\u0442\u0430\u0442
p1870
(lp1871
g3
asV\u043c\u0438\u043b\u043b\u0438\u0433\u0440\u0430\u043c\u043c
p1872
(lp1873
g3
asV\u0432\u0438\u0434\u0435\u043e\u043c\u0430\u0433\u043d\u0438\u0442\u043e\u0444\u043e\u043d
p1874
(lp1875
g3
asV\u0434\u0435\u043d\u043e\u043c\u0438\u043d\u0430\u0446\u0438\u044f
p1876
(lp1877
g3
asV\u0433\u0435\u043e\u0434\u0438\u043d\u0430\u043c\u0438\u043a\u0430
p1878
(lp1879
g3
asV\u0431\u0440\u043e\u043d\u0445\u044d\u043a\u0442\u0430\u0437
p1880
(lp1881
g3
asV\u0433\u0430\u043b\u044c\u0432\u0430\u043d\u043e\u043c\u0435\u0442\u0440
p1882
(lp1883
g3
asV\u043c\u0438\u043e\u0433\u043b\u043e\u0431\u0438\u043d
p1884
(lp1885
g3
asV\u043a\u0430\u0440\u0431\u0438\u0434
p1886
(lp1887
g3
asV\u043c\u0438\u043a\u0440\u043e\u0440\u0435\u043b\u044c\u0435\u0444
p1888
(lp1889
g3
asV\u0440\u0430\u0434\u0438\u043e\u0436\u0443\u0440\u043d\u0430\u043b
p1890
(lp1891
g3
asV\u0444\u043e\u0442\u043e\u0433\u0440\u0430\u0444
p1892
(lp1893
g3
asV\u043e\u0440\u0442\u043e\u0433\u0435\u043d\u0435\u0437
p1894
(lp1895
g3
asV\u0442\u0435\u0440\u043c\u043e\u044f\u0434\u0440\u043e\u043b\u044b\u049b
p1896
(lp1897
g3
asV\u0442\u043e\u043a\u0441\u043e\u043f\u043b\u0430\u0437\u043c\u043e\u0437
p1898
(lp1899
g3
asV\u0433\u0440\u0430\u0443\u0432\u0430\u043a\u043a\u0430
p1900
(lp1901
g3
asV\u0444\u0438\u0442\u043e\u043a\u043b\u0438\u043c\u0430\u0442
p1902
(lp1903
g3
asV\u0430\u0432\u0442\u043e\u0434\u0438\u0441\u043f\u0435\u0442\u0447\u0435\u0440
p1904
(lp1905
g3
asV\u043c\u0435\u0442\u0430\u0431\u0438\u043e\u0437
p1906
(lp1907
g3
asV\u0433\u0430\u0437\u043e\u043c\u0435\u0442\u0440
p1908
(lp1909
g3
asV\u044d\u043d\u0442\u043e\u043c\u043e\u0444\u0430\u0443\u043d\u0430
p1910
(lp1911
g3
asV\u0444\u043e\u0442\u043e\u0442\u0435\u043b\u0435\u0433\u0440\u0430\u0444
p1912
(lp1913
g3
asV\u0442\u0435\u0440\u043c\u043e\u0442\u0430\u043a\u0441\u0438\u0441
p1914
(lp1915
g3
asV\u0433\u0430\u043b\u044c\u0432\u0430\u043d\u043e\u043f\u043b\u0430\u0441\u0442\u0438\u043a\u0430
p1916
(lp1917
g3
asV\u0430\u0440\u0445\u0435\u043e\u043b\u043e\u0433\u0438\u044f
p1918
(lp1919
g3
asV\u0431\u0438\u043e\u0433\u0435\u043d
p1920
(lp1921
g3
asV\u0433\u0438\u043f\u0435\u0440\u0431\u0430\u0437\u0438\u0442
p1922
(lp1923
g3
asV\u0442\u0440\u0430\u043d\u0441\u0438\u0432\u0435\u0440
p1924
(lp1925
g3
asV\u0433\u0438\u0434\u0440\u043e\u0445\u043e\u0440\u0438\u044f
p1926
(lp1927
g3
asV\u0432\u0438\u0434\u0435\u043e\u043a\u043b\u0438\u043f
p1928
(lp1929
g3
asV\u0430\u044d\u0440\u043e\u0433\u0440\u0430\u0444
p1930
(lp1931
g3
asV\u043a\u0430\u0440\u0434\u0438\u043e\u0445\u0438\u0440\u0443\u0440\u0433
p1932
(lp1933
g3
asV\u043c\u0438\u0437\u0430\u043d\u0442\u0440\u043e\u043f\u0438\u044f
p1934
(lp1935
g3
asV\u0442\u0440\u043e\u043c\u0431\u043e\u0446\u0438\u0442
p1936
(lp1937
g3
asV\u0442\u0435\u043b\u0435\u0441\u0442\u0443\u0434\u0438\u044f
p1938
(lp1939
g3
asV\u0433\u0438\u043f\u043d\u043e\u0430\u043d\u0430\u043b\u0438\u0437
p1940
(lp1941
g3
asV\u0438\u043a\u043e\u043d\u043e\u0441\u043a\u043e\u043f
p1942
(lp1943
g3
asV\u0431\u0430\u0440\u043e\u0441\u043a\u043e\u043f
p1944
(lp1945
g3
asV\u0442\u0435\u0445\u043d\u043e\u043a\u0440\u0430\u0442\u0438\u044f
p1946
(lp1947
g3
asV\u043c\u0435\u0433\u0430\u0441\u043a\u043e\u043f
p1948
(lp1949
g3
asV\u0442\u0438\u0440\u0435\u043e\u0442\u043e\u043a\u0441\u0438\u043a\u043e\u0437
p1950
(lp1951
g3
asV\u0443\u0440\u043e\u043b\u043e\u0433\u0438\u044f
p1952
(lp1953
g3
asV\u0433\u0438\u0434\u0440\u043e\u0433\u0435\u043e\u043c\u0435\u0442\u0440\u0438\u044f
p1954
(lp1955
g3
asV\u0442\u0435\u043b\u043e\u043c\u0435\u0440\u043b\u0435\u0440
p1956
(lp1957
g3
asV\u0440\u0430\u0434\u0438\u043e\u0442\u0435\u043b\u0435\u0433\u0440\u0430\u0444
p1958
(lp1959
g3
asV\u043d\u0435\u043e\u043b\u0438\u0431\u0435\u0440\u0430\u043b\u0438\u0437\u043c
p1960
(lp1961
g3
asV\u0442\u0435\u0445\u043d\u043e\u0441\u0444\u0435\u0440\u0430
p1962
(lp1963
g3
asV\u043c\u0438\u043a\u0440\u043e\u0441\u043a\u043e\u043f\u0438\u044f
p1964
(lp1965
g3
asV\u0433\u0438\u0434\u0440\u043e\u0446\u0438\u043a\u043b\u043e\u043d
p1966
(lp1967
g3
asV\u043a\u0430\u043a\u043e\u0444\u043e\u043d\u0438\u044f
p1968
(lp1969
g3
asV\u043c\u043e\u0442\u043e\u0432\u043e\u0437
p1970
(lp1971
g3
asV\u0442\u0440\u0430\u043d\u0441\u0441\u0435\u0440\u0442\u0438\u0444\u0438\u043a\u0430\u0442
p1972
(lp1973
g3
asV\u0433\u0438\u0434\u0440\u0430\u0440\u0433\u0438\u043b\u043b\u0438\u0442
p1974
(lp1975
g3
asV\u044d\u0433\u043e\u0446\u0435\u043d\u0442\u0440\u0438\u0437\u043c
p1976
(lp1977
g3
asV\u043d\u0435\u043e\u043b\u0438\u0442
p1978
(lp1979
g3
asV\u0444\u043e\u0442\u043e\u044d\u0442\u044e\u0434
p1980
(lp1981
g3
asV\u0430\u043d\u0435\u043c\u043e\u043c\u0435\u0442\u0440
p1982
(lp1983
g3
asV\u043c\u0438\u043a\u0440\u043e\u044d\u043b\u0435\u043a\u0442\u0440\u043e\u043d\u0438\u043a\u0430
p1984
(lp1985
g3
asV\u0444\u043b\u044e\u043e\u0440\u043e\u0433\u0440\u0430\u0444\u0438\u044f
p1986
(lp1987
g3
asV\u0433\u0435\u043c\u0430\u043d\u0433\u0438\u043e\u043c\u0430
p1988
(lp1989
g3
asV\u0430\u043d\u0442\u0438\u0433\u0435\u043d
p1990
(lp1991
g3
asV\u0434\u0435\u0437\u0430\u043a\u0442\u0438\u0432\u0430\u0446\u0438\u044f
p1992
(lp1993
g3
asV\u0433\u0430\u043b\u043b\u043e\u0433\u0440\u0435\u043a
p1994
(lp1995
g3
asV\u043c\u0438\u043a\u0440\u043e\u0441\u043f\u043e\u0440\u0430
p1996
(lp1997
g3
asV\u043f\u043e\u043b\u0438\u043a\u0440\u0438\u0441\u0442\u0430\u043b\u043b
p1998
(lp1999
g3
asV\u0433\u0435\u043e\u0430\u043d\u0442\u0438\u043a\u043b\u0438\u043d\u0430\u043b\u044c
p2000
(lp2001
g3
asV\u0444\u0430\u0443\u0441\u0442\u043f\u0430\u0442\u0440\u043e\u043d
p2002
(lp2003
g3
asV\u0430\u0441\u0442\u0440\u043e\u0444\u0438\u0437\u0438\u043a
p2004
(lp2005
g3
asV\u043c\u043e\u043d\u043e\u0442\u0435\u0438\u0441\u0442
p2006
(lp2007
g3
asV\u044d\u043b\u0435\u043a\u0442\u0440\u043e\u0433\u0440\u0430\u0444\u0438\u044f
p2008
(lp2009
g3
asV\u043c\u0435\u0442\u0430\u0441\u0438\u043c\u0432\u043e\u043b
p2010
(lp2011
g3
asV\u0431\u0438\u043e\u0433\u0435\u043e\u0433\u0440\u0430\u0444\u0438\u044f
p2012
(lp2013
g3
asV\u043a\u0430\u0440\u0442\u043e\u043c\u0435\u0442\u0440\u0438\u044f
p2014
(lp2015
g3
asV\u043a\u0430\u0440\u0434\u0438\u043e\u0441\u043a\u043b\u0435\u0440\u043e\u0437
p2016
(lp2017
g3
asV\u0430\u043d\u0434\u0440\u0430\u0433\u043e\u0433\u0438\u043a\u0430
p2018
(lp2019
g3
asV\u043c\u0435\u0445\u0430\u043d\u043e\u0442\u0440\u043e\u043d\u0438\u043a\u0430
p2020
(lp2021
g3
asV\u0433\u0435\u043c\u0430\u0440\u0442\u0440\u043e\u0437
p2022
(lp2023
g3
asV\u0442\u0435\u0440\u043c\u043e\u0444\u043e\u0441\u0444\u0430\u0442
p2024
(lp2025
g3
asV\u043f\u0430\u043b\u0435\u043e\u043c\u0430\u0433\u043d\u0435\u0442\u0438\u0437\u043c
p2026
(lp2027
g3
asV\u0438\u043c\u043f\u043b\u0430\u043d\u0442\u0430\u0446\u0438\u044f
p2028
(lp2029
g3
asV\u0438\u0437\u043e\u0433\u0440\u0430\u0444\u0438\u044f
p2030
(lp2031
g3
asV\u0434\u0435\u0440\u043c\u0430\u0442\u043e\u043c
p2032
(lp2033
g3
ag3
asV\u0442\u0440\u0430\u043d\u0441\u0444\u0435\u0440\u043a\u0430\u0440
p2034
(lp2035
g3
asV\u0444\u043e\u0442\u043e\u043c\u0435\u0442\u0440\u0438\u044f
p2036
(lp2037
g3
asV\u0444\u043e\u0442\u043e\u043a\u0430\u0440\u0442\u0430
p2038
(lp2039
g3
asV\u043c\u0435\u0442\u0430\u0444\u043e\u0441\u0444\u0430\u0442
p2040
(lp2041
g3
asV\u0442\u043e\u043f\u043e\u043a\u0430\u0440\u0442
p2042
(lp2043
g3
asV\u0442\u0435\u0440\u043c\u043e\u0441
p2044
(lp2045
g3
asV\u0430\u0432\u0442\u043e\u0433\u0440\u0430\u0444
p2046
(lp2047
g3
asV\u044d\u0442\u043d\u043e\u043f\u0435\u0434\u0430\u0433\u043e\u0433\u0438\u043a\u0430
p2048
(lp2049
g3
asV\u0438\u0437\u043e\u0442\u0435\u0440\u043c\u0438\u044f
p2050
(lp2051
g3
asV\u0442\u0443\u0431\u0434\u0438\u0441\u043f\u0430\u043d\u0441\u0435\u0440
p2052
(lp2053
g3
asV\u0433\u0435\u043d\u043e\u0444\u043e\u043d\u0434
p2054
(lp2055
g3
asV\u0433\u0438\u0434\u0440\u043e\u0444\u0438\u0437\u0438\u043a\u0430
p2056
(lp2057
g3
asV\u0433\u0430\u043d\u0434\u0431\u043e\u043b
p2058
(lp2059
g3
asV\u043c\u0438\u043a\u0440\u043e\u0430\u0432\u0442\u043e\u0431\u0443\u0441
p2060
(lp2061
g3
asV\u0442\u0435\u0440\u043c\u043e\u043c\u0435\u0442\u0440\u0438\u044f
p2062
(lp2063
g3
asV\u0437\u043e\u043e\u043f\u0430\u0440\u043a
p2064
(lp2065
g3
asV\u043f\u0430\u043d\u0430\u0442\u043b\u0430\u043d\u0442\u0438\u0437\u043c
p2066
(lp2067
g3
asV\u0442\u0440\u0438\u043f\u043e\u043b\u0438\u0444\u043e\u0441\u0444\u0430\u0442
p2068
(lp2069
g3
asV\u0430\u043a\u0440\u043e\u043f\u043e\u043b\u044c
p2070
(lp2071
g3
asV\u043c\u043e\u043d\u043e\u0433\u0430\u043c\u0438\u044f
p2072
(lp2073
g3
asV\u044d\u0434\u0430\u0441\u0444\u0435\u0440\u0430
p2074
(lp2075
g3
asV\u043c\u043e\u0442\u043e\u0431\u043e\u043b
p2076
(lp2077
g3
asV\u0433\u0435\u043d\u0435\u0430\u043b\u043e\u0433\u0438\u044f
p2078
(lp2079
g3
asV\u0432\u0438\u0434\u0435\u043e\u043f\u043b\u0435\u0435\u0440
p2080
(lp2081
g3
asV\u0444\u0438\u043b\u044d\u043c\u0431\u0440\u0438\u043e\u0433\u0435\u043d\u0435\u0437
p2082
(lp2083
g3
asV\u0433\u0438\u0434\u0440\u043e\u0431\u0438\u043e\u0441
p2084
(lp2085
g3
asVtpax\u0438\u043b\u0438\u043fap\u0438t
p2086
(lp2087
g3
asV\u044d\u043a\u0437\u043e\u0441\u0444\u0435\u0440\u0430
p2088
(lp2089
g3
asV\u043c\u0438\u043a\u0440\u043e\u043c\u0435\u0442\u0440\u0438\u044f
p2090
(lp2091
g3
asV\u0441\u0442\u0440\u0435\u043f\u0442\u043e\u043a\u043e\u043a\u043a
p2092
(lp2093
g3
asV\u0438\u0440\u0438\u0434\u044d\u043a\u0442\u043e\u043c\u0438\u044f
p2094
(lp2095
g3
asV\u0433\u0438\u0434\u0440\u043e\u0431\u0438\u043e\u043b\u043e\u0433\u0438\u044f
p2096
(lp2097
g3
asV\u0442\u0440\u0438\u0433\u043e\u043d\u0435\u043b\u043b\u0430
p2098
(lp2099
g3
asV\u043a\u043e\u043d\u0442\u0440\u0440\u0435\u0432\u043e\u043b\u044e\u0446\u0438\u044f
p2100
(lp2101
g3
asV\u043c\u0435\u0442\u0430\u043c\u043e\u0440\u0444\u0438\u0437\u043c
p2102
(lp2103
g3
asV\u043e\u0440\u0433\u0430\u043d\u043e\u0433\u0435\u043d\u0435\u0437
p2104
(lp2105
g3
asV\u044d\u0442\u043d\u043e\u0446\u0435\u043d\u0442\u0440\u0438\u0437\u043c
p2106
(lp2107
g3
asV\u0433\u0435\u043d\u0448\u0442\u0430\u0431
p2108
(lp2109
g3
asV\u0433\u0435\u043e\u043c\u0430\u0433\u043d\u0435\u0442\u0438\u0437\u043c
p2110
(lp2111
g3
asV\u0430\u043a\u0441\u0435\u043b\u0435\u0440\u043e\u043c\u0435\u0442\u0440
p2112
(lp2113
g3
asV\u0430\u043d\u0442\u0438\u0432\u0438\u0440\u0443\u0441
p2114
(lp2115
g3
asV\u0431\u0438\u043e\u0446\u0435\u043d\u043e\u043b\u043e\u0433\u0438\u044f
p2116
(lp2117
g3
asV\u0437\u043e\u043e\u0446\u0438\u0442
p2118
(lp2119
g3
asV\u0433\u0435\u0442\u0435\u0440\u043e\u0441\u0444\u0435\u0440\u0430
p2120
(lp2121
g3
asV\u0431\u0438\u043e\u043c\u0435\u0442\u0440\u0438\u044f
p2122
(lp2123
g3
asV\u0441\u0435\u0434\u0438\u043c\u0435\u043d\u0442\u043e\u0433\u0435\u043d\u0435\u0437
p2124
(lp2125
g3
asV\u0433\u0435\u043e\u043c\u043e\u0440\u0444\u043e\u043b\u043e\u0433\u0438\u044f
p2126
(lp2127
g3
ag3
asV\u043e\u0440\u0442\u043e\u043f\u0441\u0438\u0445\u0438\u0430\u0442\u0440\u0438\u044f
p2128
(lp2129
g3
asV\u043c\u0438\u043a\u0440\u043e\u0445\u0438\u0440\u0443\u0440\u0433\u0438\u044f
p2130
(lp2131
g3
asV\u0442\u0440\u0430\u043d\u0441\u043f\u043e\u0440\u0442
p2132
(lp2133
g3
asV\u0433\u043e\u043d\u043e\u0446\u0438\u0442
p2134
(lp2135
g3
asV\u0442\u0440\u0438\u043d\u0438\u0442\u0440\u043e\u0442\u043e\u043b\u0443\u043e\u043b
p2136
(lp2137
g3
asV\u0433\u0435\u043b\u0438\u043e\u0431\u0438\u043e\u043b\u043e\u0433\u0438\u044f
p2138
(lp2139
g3
asV\u044d\u0442\u043d\u043e\u0444\u043e\u0431\u0438\u044f
p2140
(lp2141
g3
asV\u0432\u0430\u0442\u0442\u043c\u0435\u0442\u0440
p2142
(lp2143
g3
asV\u0430\u0432\u0438\u0430\u0430\u043f\u043f\u0430\u0440\u0430\u0442
p2144
(lp2145
g3
asV\u0433\u0435\u0440\u0431\u0430\u0441\u0443\u043b\u044c\u0444\u0430\u043d
p2146
(lp2147
g3
asV\u0438\u043d\u0442\u0435\u0440\u0441\u0435\u043a\u0441
p2148
(lp2149
g3
asV\u0438\u043a\u0442\u0438\u0434\u043e\u0437\u0430\u0432\u0440
p2150
(lp2151
g3
asV\u043c\u0430\u0433\u043d\u0438\u0442\u043e\u0441\u0444\u0435\u0440\u0430
p2152
(lp2153
g3
asV\u0442\u0435\u0442\u0440\u0430\u044d\u0434\u0440
p2154
(lp2155
g3
asV\u043a\u0430\u0440\u0442\u043e\u0434\u0438\u0430\u0433\u0440\u0430\u043c\u043c\u0430
p2156
(lp2157
g3
asV\u0430\u0440\u0445\u0435\u043e\u0433\u0440\u0430\u0444\u0438\u044f
p2158
(lp2159
g3
asV\u0430\u043d\u0430\u044d\u0440\u043e\u0431
p2160
(lp2161
g3
asV\u0444\u043e\u043d\u043e\u0441\u0435\u043c\u0430\u043d\u0442\u0438\u043a\u0430
p2162
(lp2163
g3
asV\u0433\u0435\u043c\u0430\u0433\u0433\u043b\u044e\u0442\u0438\u043d\u0430\u0446\u0438\u044f
p2164
(lp2165
g3
asV\u0444\u043e\u0442\u043e\u0448\u0430\u049b\u043f\u0430\u049b
p2166
(lp2167
g3
asV\u0432\u043e\u043b\u044c\u0442\u043c\u0435\u0442\u0440
p2168
(lp2169
g3
asV\u043f\u0438\u043a\u043d\u043e\u043c\u0435\u0442\u0440
p2170
(lp2171
g3
asV\u0431\u0438\u043e\u0433\u0435\u043e\u0445\u0438\u043c\u0438\u044f
p2172
(lp2173
g3
asV\u0431\u0438\u043e\u0441\u0442\u0440\u0430\u0442\u0438\u0433\u0440\u0430\u0444\u0438\u044f
p2174
(lp2175
g3
asV\u0442\u0435\u043c\u043f\u0435\u0440\u0430\u0442\u0443\u0440\u0430
p2176
(lp2177
g3
asV\u0434\u0435\u0444\u0435\u043a\u0442\u043e\u043b\u043e\u0433\u0438\u044f
p2178
(lp2179
g3
asV\u0433\u0435\u043c\u043e\u0442\u0435\u0440\u0430\u043f\u0438\u044f
p2180
(lp2181
g3
asV\u043d\u0435\u0439\u0440\u043e\u0445\u0438\u0440\u0443\u0440\u0433
p2182
(lp2183
g3
asV\u0433\u0435\u043e\u0444\u0438\u0437\u0438\u043a\u0430
p2184
(lp2185
g3
asV\u043c\u0435\u0437\u043e\u043d\u0435\u0444\u0440\u043e\u0441
p2186
(lp2187
g3
asV\u043c\u0435\u0442\u0430\u043a\u043e\u043c\u043f\u0443\u043b\u044f\u0442\u043e\u0440
p2188
(lp2189
g3
asV\u0440\u0430\u0434\u0438\u043e\u0442\u0435\u043b\u0435\u0441\u043a\u043e\u043f
p2190
(lp2191
g3
asV\u0444\u043b\u044e\u043e\u0440\u043e\u0437
p2192
(lp2193
g3
asV\u0442\u0440\u043e\u043e\u0441\u0442\u043e\u043c\u0430\u0440\u0442\u0435\u043d\u0441\u0438\u0442
p2194
(lp2195
g3
asV\u0442\u0440\u0430\u043d\u0441\u043f\u043b\u0430\u043d\u0442\u0430\u0446\u0438\u044f
p2196
(lp2197
g3
asV\u044d\u043b\u0435\u043a\u0442\u0440\u043a\u043e\u0430\u0433\u0443\u043b\u044f\u0446\u0438\u044f
p2198
(lp2199
g3
asV\u0445\u043b\u043e\u0440\u0430\u0446\u0435\u0442\u043e\u0444\u0435\u043d\u043e\u043d
p2200
(lp2201
g3
asV\u0430\u0432\u0438\u0430\u0434\u0435\u0441\u0430\u043d\u0442
p2202
(lp2203
g3
asV\u0438\u0435\u0440\u043e\u0433\u043b\u0438\u0444
p2204
(lp2205
g3
asV\u0442\u0440\u0430\u043d\u0441\u043f\u044c\u044e\u0442\u0435\u0440
p2206
(lp2207
g3
asV\u0433\u0438\u0434\u0440\u043e\u0442\u0440\u0430\u043d\u0441\u0444\u043e\u0440\u043c\u0430\u0442\u043e\u0440
p2208
(lp2209
g3
asV\u044d\u043a\u043e\u043f\u043e\u043b\u0438\u0441
p2210
(lp2211
g3
asV\u0433\u0435\u043e\u0434\u0435\u0437\u0438\u044f
p2212
(lp2213
g3
asV\u0434\u0435\u0437\u0438\u043d\u0442\u0435\u0433\u0440\u0430\u0442\u043e\u0440
p2214
(lp2215
g3
asV\u0442\u0435\u043b\u0435\u043d\u043e\u043c\u0443\u0441
p2216
(lp2217
g3
asV\u0433\u0435\u0442\u0435\u0440\u043e\u0433\u0440\u0430\u0444\u0438\u044f
p2218
(lp2219
g3
asVx\u0438ohoc\u0444epa
p2220
(lp2221
g3
asV\u0442\u043e\u043f\u043e\u0433\u0440\u0430\u0444\u0438\u044f
p2222
(lp2223
g3
asV\u044d\u0442\u043d\u043e\u043c\u0435\u0442\u043e\u0434\u043e\u043b\u043e\u0433\u0438\u044f
p2224
(lp2225
g3
asV\u043c\u043e\u0442\u043e\u0446\u0438\u043a\u043b
p2226
(lp2227
g3
asV\u044d\u043c\u0430\u043d\u043e\u043c\u0435\u0442\u0440
p2228
(lp2229
g3
asV\u0438\u043c\u043c\u0443\u043d\u043e\u0431\u0438\u043e\u043b\u043e\u0433\u0438\u044f
p2230
(lp2231
g3
asV\u0442\u0443\u0440\u0431\u043e\u0433\u0435\u043d\u0435\u0440\u0430\u0442\u043e\u0440
p2232
(lp2233
g3
asV\u0433\u0435\u043c\u043c\u043e\u043b\u043e\u0433\u0438\u044f
p2234
(lp2235
g3
asV\u0430\u043a\u0442\u0438\u043d\u043e\u043c\u0435\u0442\u0440
p2236
(lp2237
g3
asV\u0433\u0430\u043b\u044c\u0432\u0430\u043d\u043e\u0441\u0442\u0435\u0433\u0438\u044f
p2238
(lp2239
g3
asV\u0431\u0438\u043e\u0445\u0438\u043c\u0438\u043a
p2240
(lp2241
g3
asV\u0445\u0440\u043e\u043c\u043e\u0444\u043e\u0440\u043b\u0430\u0440
p2242
(lp2243
g3
asV\u0433\u0438\u0431\u0440\u0438\u0434\u043e\u043b\u043e\u0433\u0438\u044f
p2244
(lp2245
g3
asV\u0442\u0435\u043b\u0435\u043a\u043e\u0440\u0440\u0435\u0441\u043f\u043e\u043d\u0434\u0435\u043d\u0442
p2246
(lp2247
g3
asV\u043c\u0435\u0442\u0430\u0438\u0437\u043e\u043c\u0435\u0440
p2248
(lp2249
g3
asV\u0433\u0438\u0434\u0440\u043e\u0430\u0433\u0440\u0435\u0433\u0430\u0442
p2250
(lp2251
g3
asV\u043c\u043e\u0442\u043e\u043a\u043e\u043b\u044f\u0441\u043a\u0430
p2252
(lp2253
g3
asV\u043c\u0438\u043a\u0440\u043e\u043e\u043f\u0435\u0440\u0430\u0446\u0438\u044f
p2254
(lp2255
g3
asV\u0442\u0435\u043b\u0435\u0441\u043a\u043e\u043f
p2256
(lp2257
g3
asV\u0430\u044d\u0440\u043e\u043f\u043e\u0440\u0442
p2258
(lp2259
g3
asV\u0444\u043e\u0442\u043e\u0442\u0435\u043b\u0435\u0433\u0440\u0430\u043c\u043c\u0430
p2260
(lp2261
g3
asV\u0433\u0435\u043e\u0442\u0435\u0445\u043d\u043e\u043b\u043e\u0433\u0438\u044f
p2262
(lp2263
g3
asV\u0444\u0438\u0442\u043e\u0446\u0435\u043d\u043e\u043b\u043e\u0433\u0438\u044f
p2264
(lp2265
g3
asV\u0430\u0432\u0442\u043e\u0438\u043d\u0441\u043f\u0435\u043a\u0442\u043e\u0440
p2266
(lp2267
g3
asV\u0433\u0435\u043d\u043e\u0442\u0435\u0438\u0437\u043c
p2268
(lp2269
g3
asV\u043c\u0435\u0437\u043e\u043f\u0430\u0443\u0437\u0430
p2270
(lp2271
g3
asV\u0442\u0438\u0444\u043b\u043e\u043f\u0435\u0434\u0430\u0433\u043e\u0433\u0438\u043a\u0430
p2272
(lp2273
g3
asV\u0445\u043b\u043e\u0440\u0430\u043a\u043d\u0435
p2274
(lp2275
g3
asV\u043f\u0430\u043d\u0442\u043e\u043c\u0438\u043c\u0438\u043a\u0430
p2276
(lp2277
g3
asV\u043e\u0440\u043d\u0438\u0442\u043e\u043b\u043e\u0433\u0438\u044f
p2278
(lp2279
g3
asV\u0433\u0435\u043c\u0430\u0442\u043e\u043a\u0441\u0438\u043b\u0438\u043d
p2280
(lp2281
g3
asV\u0442\u0435\u0440\u043c\u043e\u0441\u0442\u0430\u0442
p2282
(lp2283
g3
asV\u0445\u0435\u043c\u043e\u0441\u0438\u043d\u0442\u0435\u0437
p2284
(lp2285
g3
asV\u0433\u0438\u0434\u0440\u043e\u0433\u0435\u043c\u0430\u0442\u0438\u0442
p2286
(lp2287
g3
asV\u043a\u0430\u0440\u0434\u0438\u043e\u0433\u0440\u0430\u0444\u0438\u044f
p2288
(lp2289
g3
asV\u043c\u0438\u043d\u0435\u0440\u0430\u043b\u043e\u0433\u0438\u044f
p2290
(lp2291
g3
asV\u0433\u0435\u043d\u043e\u0442\u0440\u043e\u0444\u0442\u0430\u0440
p2292
(lp2293
g3
asV\u043c\u043e\u043d\u043e\u043a\u0440\u0438\u0441\u0442\u0430\u043b\u043b
p2294
(lp2295
g3
asV\u0440\u0430\u0434\u0438\u043e\u043b\u043e\u043a\u0430\u0442\u043e\u0440
p2296
(lp2297
g3
asV\u0430\u0432\u0442\u043e\u0442\u0440\u043e\u043f\u0438\u0437\u043c
p2298
(lp2299
g3
asV\u0442\u0435\u0440\u043c\u043e\u043f\u0430\u0440
p2300
(lp2301
g3
asV\u0433\u0438\u0434\u0440\u043e\u0445\u0438\u043c\u0438\u044f
p2302
(lp2303
g3
asV\u043f\u0430\u043d\u0442\u044e\u0440\u043a\u0438\u0441\u0442
p2304
(lp2305
g3
asV\u043c\u0438\u043a\u0440\u043e\u043a\u043e\u043c\u043f\u044c\u044e\u0442\u0435\u0440
p2306
(lp2307
g3
asV\u0444\u0430\u0433\u043e\u043f\u0440\u043e\u0444\u0438\u043b\u0430\u043a\u0442\u0438\u043a\u0430
p2308
(lp2309
g3
asV\u0438\u043c\u043c\u0443\u043d\u043e\u043f\u0430\u0442\u043e\u043b\u043e\u0433\u0438\u044f
p2310
(lp2311
g3
asV\u0441\u043e\u0446\u0438\u043e\u0433\u0440\u0430\u043c\u043c\u0430
p2312
(lp2313
g3
asV\u0441\u043e\u0446\u0438\u043e\u043c\u0435\u0442\u0440\u0438\u044f
p2314
(lp2315
g3
asV\u0431\u0438\u043e\u0445\u0438\u043c\u0438\u044f
p2316
(lp2317
g3
asV\u0432\u0438\u043d\u0434\u0441\u0435\u0440\u0444\u0438\u043d\u0433
p2318
(lp2319
g3
asV\u043c\u0438\u043a\u0440\u043e\u043e\u0440\u0433\u0430\u043d\u0438\u0437\u043c
p2320
(lp2321
g3
asV\u0438\u043d\u0442\u0435\u0440\u043d\u0435\u0442
p2322
(lp2323
g3
asV\u0430\u0432\u0442\u043e\u043f\u0430\u0440\u043a
p2324
(lp2325
g3
asV\u0430\u0433\u0440\u043e\u0431\u0438\u043e\u043b\u043e\u0433
p2326
(lp2327
g3
asV\u0433\u0438\u0434\u0430\u0442\u043e\u0434
p2328
(lp2329
g3
asV\u0433\u0435\u043e\u0438\u0434
p2330
(lp2331
g3
asV\u043c\u0435\u0433\u0430\u043f\u043b\u0430\u043d\u043a\u0442\u043e\u043d
p2332
(lp2333
g3
asV\u043c\u0438\u0437\u0430\u043d\u0441\u0446\u0435\u043d\u0430
p2334
(lp2335
g3
asV\u0444\u0438\u0442\u043e\u0444\u0442\u043e\u0440\u043e\u0437
p2336
(lp2337
g3
asV\u0433\u0430\u0441\u0442\u0440\u043e\u044d\u043d\u0442\u0435\u0440\u043e\u043b\u043e\u0433\u0438\u044f
p2338
(lp2339
g3
asV\u043c\u0430\u043a\u0440\u043e\u043c\u043e\u043b\u0435\u043a\u0443\u043b\u0430
p2340
(lp2341
g3
asV\u0430\u0441\u0442\u0440\u043e\u0431\u043e\u0442\u0430\u043d\u0438\u043a
p2342
(lp2343
g3
asV\u0443\u043d\u0438\u0432\u0435\u0440\u043c\u0430\u0433
p2344
(lp2345
g3
asV\u0444\u043e\u0442\u043e\u0441\u0444\u0435\u0440\u0430
p2346
(lp2347
g3
asV\u043c\u0438\u0437\u0430\u043d\u0442\u0440\u043e\u043f
p2348
(lp2349
g3
asV\u043f\u0440\u043e\u0442\u043e\u043f\u043b\u0430\u0437\u043c\u0430
p2350
(lp2351
g3
asV\u0433\u0438\u0434\u0440\u043e\u0438\u043d\u0434\u0438\u043a\u0430\u0442\u043e\u0440
p2352
(lp2353
g3
asV\u043f\u0440\u0435\u0440\u043e\u0433\u0430\u0442\u0438\u0432\u0430
p2354
(lp2355
g3
asV\u0445\u043b\u043e\u0440\u043e\u0444\u0438\u043b\u043b
p2356
(lp2357
g3
asV\u0433\u0430\u043b\u044c\u0432\u0430\u043d\u043e\u0442\u0435\u0440\u0430\u043f\u0438\u044f
p2358
(lp2359
g3
asV\u0430\u043d\u0430\u0445\u0440\u043e\u043d\u0438\u0437\u043c
p2360
(lp2361
g3
asV\u0433\u0435\u043c\u0435\u043b\u043b\u043e\u043b\u043e\u0433\u0438\u044f
p2362
(lp2363
g3
asV\u0433\u0438\u0434\u0440\u043e\u0431\u0438\u043e\u0441\u0444\u0435\u0440\u0430
p2364
(lp2365
g3
asV\u043a\u043e\u043d\u0442\u0440\u0442\u0438\u0442\u0443\u043b
p2366
(lp2367
g3
asV\u0434\u0435\u043c\u043e\u0433\u0440\u0430\u0444\u0438\u044f
p2368
(lp2369
g3
asV\u0430\u0432\u0442\u043e\u0434\u0440\u043e\u043c
p2370
(lp2371
g3
asV\u0433\u0435\u043e\u0431\u0438\u043e\u043b\u043e\u0433\u0438\u044f
p2372
(lp2373
g3
asV\u0433\u0435\u043e\u0431\u043e\u0442\u0430\u043d\u0438\u043a\u0430
p2374
(lp2375
g3
asV\u0431\u0430\u0440\u043e\u0433\u0440\u0430\u0444
p2376
(lp2377
g3
asV\u0442\u0435\u0445\u043d\u043e\u0433\u0435\u043d\u0435\u0437
p2378
(lp2379
g3
asV\u0444\u0438\u0442\u043e\u0442\u0440\u043e\u043d
p2380
(lp2381
g3
asV\u0438\u0437\u043e\u0442\u0440\u043e\u043f\u0438\u044f
p2382
(lp2383
g3
asV\u043c\u0435\u0433\u0430\u0442\u043e\u043d\u043d\u0430
p2384
(lp2385
g3
asV\u0432\u0435\u043b\u043e\u0434\u0440\u043e\u043c
p2386
(lp2387
g3
asV\u0433\u0438\u0441\u0442\u0438\u043e\u0446\u0438\u0442
p2388
(lp2389
g3
asV\u043c\u0438\u043a\u0440\u043e\u0431\u0438\u043e\u043b\u043e\u0433
p2390
(lp2391
g3
asV\u0437\u043e\u043e\u0442\u0435\u0445\u043d\u0438\u043a\u0430
p2392
(lp2393
g3
asV\u0437\u043e\u043e\u0444\u0430\u0433
p2394
(lp2395
g3
asV\u0430\u0440\u0445\u0435\u0433\u043e\u043d\u0438\u0439
p2396
(lp2397
g3
asV\u043f\u0430\u043b\u0435\u043e\u0433\u0435\u043e\u0433\u0440\u0430\u0444\u0438\u044f
p2398
(lp2399
g3
asV\u0442\u0435\u0440\u043c\u043e\u0445\u0438\u043c\u0438\u044f
p2400
(lp2401
g3
asV\u0444\u043e\u0442\u043e\u043c\u0435\u0445\u0430\u043d\u0438\u043a\u0430
p2402
(lp2403
g3
asV\u0438\u043a\u043e\u0441\u0430\u044d\u0434\u0440
p2404
(lp2405
g3
asV\u0441\u0442\u0440\u0430\u0442\u043e\u0441\u0444\u0435\u0440\u0430
p2406
(lp2407
g3
asV\u0442\u043e\u043f\u043e\u043d\u0438\u043c\u0438\u043a\u0430
p2408
(lp2409
g3
asV\u0438\u0434\u0435\u043e\u0433\u0440\u0430\u0444\u0438\u044f
p2410
(lp2411
g3
asV\u0441\u0435\u0439\u0441\u043c\u043e\u0433\u0440\u0430\u043c\u043c\u0430
p2412
(lp2413
g3
asV\u0442\u0435\u043b\u0435\u0442\u0440\u0430\u043d\u0441\u043b\u044f\u0442\u043e\u0440
p2414
(lp2415
g3
asV\u0442\u043e\u043a\u043e\u0444\u0435\u0440\u043e\u043b
p2416
(lp2417
g3
asV\u0442\u0435\u043b\u0435\u0434\u0440\u0430\u043c\u0430\u0442\u0443\u0440\u0433\u0438\u044f
p2418
(lp2419
g3
asV\u0442\u0440\u0430\u043d\u0441\u0430\u043a\u0446\u0438\u044f
p2420
(lp2421
g3
asV\u0430\u0432\u0442\u043e\u043f\u0438\u043b\u043e\u0442
p2422
(lp2423
g3
asV\u0431\u0438\u043e\u0437
p2424
(lp2425
g3
asV\u0434\u0435\u043a\u0430\u043f\u0438\u0442\u0430\u0446\u0438\u044f
p2426
(lp2427
g3
asV\u0433\u0435\u043c\u043e\u043b\u0438\u043c\u0444\u0430
p2428
(lp2429
g3
asV\u0434\u0435\u0440\u043c\u0430\u0442\u043e\u043b\u043e\u0433\u0438\u044f
p2430
(lp2431
g3
asV\u0433\u0435\u043c\u043e\u0442\u043e\u0440\u0430\u043a\u0441
p2432
(lp2433
g3
asV\u044d\u0442\u0438\u043b\u043c\u0435\u0440\u043a\u0430\u043f\u0442\u0430\u043d
p2434
(lp2435
g3
asV\u044d\u043b\u0435\u043a\u0442\u0440\u0445\u0438\u043c\u0438\u044f
p2436
(lp2437
g3
asV\u0430\u0441\u0442\u0435\u043d\u043e\u0441\u0444\u0435\u0440\u0430
p2438
(lp2439
g3
asV\u043f\u043e\u043b\u0438\u0441\u0435\u043c\u0430\u043d\u0442\u0438\u0437\u043c
p2440
(lp2441
g3
asV\u0438\u043d\u0431\u0440\u0438\u0434\u0438\u043d\u0433
p2442
(lp2443
g3
asV\u0433\u0438\u043f\u043e\u0442\u0440\u043e\u0444\u0438\u044f
p2444
(lp2445
g3
asV\u0432\u0435\u0431\u0435\u0440\u043c\u0435\u0442\u0440
p2446
(lp2447
g3
asV\u0441\u0443\u0440\u0434\u043e\u043f\u0441\u0438\u0445\u043e\u043b\u043e\u0433\u0438\u044f
p2448
(lp2449
g3
asV\u0438\u043d\u0442\u0435\u0440\u043d\u0430\u0446\u0438\u043e\u043d\u0430\u043b
p2450
(lp2451
g3
asV\u043d\u0435\u0439\u0440\u043e\u0430\u043d\u0430\u0442\u043e\u043c\u0438\u044f
p2452
(lp2453
g3
asV\u043a\u0430\u0439\u043d\u043e\u0442\u0438\u043f
p2454
(lp2455
g3
asV\u0431\u0438\u043e\u0433\u0435\u043e\u043b\u043e\u0433\u0438\u044f
p2456
(lp2457
g3
asV\u0433\u0438\u043f\u0441\u043e\u043c\u0435\u0442\u0440\u0438\u044f
p2458
(lp2459
g3
asV\u0433\u0438\u0434\u0440\u043e\u0433\u0435\u043e\u0445\u0438\u043c\u0438\u044f
p2460
(lp2461
g3
asV\u0433\u0438\u0434\u0440\u043e\u0433\u0440\u0430\u0444
p2462
(lp2463
g3
ag3
asV\u0440\u0430\u0434\u0438\u043e\u0430\u0441\u0442\u0440\u043e\u043d\u043e\u043c\u0438\u044f
p2464
(lp2465
g3
asV\u0442\u0440\u0430\u0432\u043c\u0430\u0442\u043e\u043b\u043e\u0433\u0438\u044f
p2466
(lp2467
g3
asV\u043f\u043e\u043b\u0438\u0433\u043e\u043d\u043e\u043c\u0435\u0442\u0440\u0438\u044f
p2468
(lp2469
g3
asV\u0442\u0440\u0430\u043d\u0441\u0433\u0440\u0435\u0441\u0441\u0438\u044f
p2470
(lp2471
g3
asV\u043c\u0430\u043a\u0440\u043e\u043f\u0440\u043e\u0446\u0435\u0441\u0441\u043e\u0440
p2472
(lp2473
g3
asV\u0430\u0432\u0442\u043e\u0448\u0442\u0443\u0440\u043c\u0430\u043d
p2474
(lp2475
g3
asV\u0445\u043b\u043e\u0440\u043e\u0444\u043e\u0441
p2476
(lp2477
g3
asV\u044d\u043b\u0435\u043a\u0442\u0440\u043a\u043e\u0440\u0443\u043d\u0434
p2478
(lp2479
g3
asV\u0442\u0440\u0438\u043f\u0441\u0438\u043d\u043e\u0433\u0435\u043d
p2480
(lp2481
g3
asV\u043a\u0430\u0440\u0442\u043e\u0433\u0440\u0430\u043c\u043c\u0430
p2482
(lp2483
g3
asV\u043c\u0435\u0442\u0440\u043e\u043b\u043e\u0433\u0438\u044f
p2484
(lp2485
g3
asV\u043f\u0430\u043d\u0442\u044e\u0440\u043a\u0438\u0437\u043c
p2486
(lp2487
g3
asV\u043f\u0430\u0440\u0430\u043f\u0441\u0438\u0445\u043e\u043b\u043e\u0433\u0438\u044f
p2488
(lp2489
g3
asV\u0433\u0438\u0441\u0442\u043e\u043b\u043e\u0433\u0438\u044f
p2490
(lp2491
g3
asV\u0430\u043d\u0435\u043c\u043e\u043b\u0438\u0442\u0442\u0435\u0440
p2492
(lp2493
g3
asV\u0433\u0440\u0430\u0432\u0438\u043c\u0435\u0442\u0440\u0438\u044f
p2494
(lp2495
g3
asV\u043c\u0438\u043a\u0440\u043e\u0446\u0435\u0444\u0430\u043b
p2496
(lp2497
g3
asV\u044d\u043d\u0434\u043e\u043f\u0430\u0440\u0430\u0437\u0438\u0442
p2498
(lp2499
g3
asV\u0445\u0438\u043d\u0434\u0441\u0430\u0439\u0442
p2500
(lp2501
g3
asV\u043f\u0430\u043b\u0435\u043e\u0433\u0435\u043e\u0431\u043e\u0442\u0430\u043d\u0438\u043a\u0430
p2502
(lp2503
g3
asV\u044d\u043d\u0434\u043e\u0442\u0435\u043b\u0438\u0439
p2504
(lp2505
g3
asV\u0444\u043e\u0442\u043e\u043a\u043e\u0440\u0440\u0435\u0441\u043f\u043e\u043d\u0434\u0435\u0442
p2506
(lp2507
g3
asV\u0430\u0442\u043e\u043c\u043e\u0432\u043e\u0437
p2508
(lp2509
g3
asV\u044d\u043a\u0441\u0442\u0440\u0430\u043f\u043e\u043b\u044f\u0446\u0438\u044f
p2510
(lp2511
g3
asV\u0442\u0435\u043b\u0435\u043c\u0435\u0445\u0430\u043d\u0438\u043a\u0430
p2512
(lp2513
g3
asV\u043c\u0435\u0442\u0430\u0442\u0435\u043e\u0440\u0438\u044f
p2514
(lp2515
g3
asV\u043c\u0438\u043a\u0440\u043e\u043a\u0430\u043b\u044c\u043a\u0443\u043b\u044f\u0442\u043e\u0440
p2516
(lp2517
g3
asV\u0442\u0440\u0430\u043d\u0441\u043b\u0438\u0442\u0435\u0440\u0430\u0446\u0438\u044f
p2518
(lp2519
g3
asV\u0442\u0435\u043b\u0435\u0444\u043e\u043d\u0438\u044f
p2520
(lp2521
g3
asV\u0442\u0435\u043b\u0435\u0442\u0430\u0439\u043f
p2522
(lp2523
g3
asV\u0431\u0438\u043e\u0442\u0435\u043b\u0435\u043c\u0435\u0442\u0440\u0438\u044f
p2524
(lp2525
g3
asV\u0444\u043e\u0442\u043e\u043b\u0430\u0431\u043e\u0440\u0430\u0442\u043e\u0440\u0438\u044f
p2526
(lp2527
g3
asV\u043c\u0435\u0433\u0430\u043f\u043e\u043b\u0438\u0441
p2528
(lp2529
g3
asV\u0442\u043e\u043f\u043e\u043d\u0438\u043c
p2530
(lp2531
g3
asV\u0433\u0438\u0434\u0440\u043e\u043f\u0435\u0434\u043e\u043b\u043e\u0433\u0438\u044f
p2532
(lp2533
g3
asV\u0438\u0437\u043e\u0431\u0443\u0442\u0438\u043b\u0430\u0446\u0438\u0442\u0430\u0442
p2534
(lp2535
g3
asV\u0442\u0440\u0430\u043d\u0441\u043f\u043e\u0437\u0438\u0446\u0438\u044f
p2536
(lp2537
g3
asV\u0442\u0440\u0430\u0445\u0435\u0438\u0442
p2538
(lp2539
g3
asV\u043a\u0430\u043b\u044c\u0446\u0435\u0444\u0438\u043b
p2540
(lp2541
g3
asV\u0446\u0438\u0442\u043e\u0441\u043f\u043e\u0440\u043e\u0437
p2542
(lp2543
g3
asV\u0442\u0435\u043b\u043e\u0444\u0430\u0437\u0430
p2544
(lp2545
g3
asV\u043c\u0438\u043a\u0440\u043e\u043b\u0438\u0442
p2546
(lp2547
g3
asV\u0433\u043b\u044f\u0446\u0438\u043e\u043b\u043e\u0433\u0438\u044f
p2548
(lp2549
g3
asV\u043c\u0438\u043a\u0441\u043e\u0441\u043f\u043e\u0440\u0438\u0434\u0438\u044f
p2550
(lp2551
g3
asV\u0444\u0438\u0442\u043e\u043f\u0430\u0442\u043e\u043b\u043e\u0433
p2552
(lp2553
g3
asV\u0444\u043e\u0442\u043e\u0432\u0438\u0442\u0440\u0438\u043d\u0430
p2554
(lp2555
g3
asV\u0438\u043c\u043f\u043b\u0430\u043d\u0442\u043e\u043b\u043e\u0433\u0438\u044f
p2556
(lp2557
g3
asV\u0433\u0438\u0433\u0440\u043e\u043c\u0435\u0442\u0440
p2558
(lp2559
g3
asV\u0433\u0438\u0434\u0440\u043e\u043c\u0443\u0441\u043a\u043e\u0432\u0438\u0442
p2560
(lp2561
g3
asV\u0430\u043d\u0442\u0438\u0434\u043e\u0442
p2562
(lp2563
g3
asV\u0430\u0432\u0430\u043d\u0437\u0430\u043b
p2564
(lp2565
g3
asV\u0430\u044d\u0440\u043e\u043c\u0430\u0433\u043d\u0438\u0442\u043e\u043c\u0435\u0442\u0440
p2566
(lp2567
g3
asV\u043c\u043e\u0440\u0444\u043e\u043b\u043e\u0433\u0438\u044f
p2568
(lp2569
g3
asV\u044d\u043a\u0437\u043e\u0431\u0438\u043e\u043b\u043e\u0433\u0438\u044f
p2570
(lp2571
g3
asV\u0442\u0435\u0445\u043d\u043e\u043f\u043e\u043b\u0438\u0441
p2572
(lp2573
g3
asV\u0432\u0438\u0434\u0435\u043e\u0442\u0435\u0440\u043c\u0438\u043d\u0430\u043b
p2574
(lp2575
g3
asV\u0438\u0437\u043e\u0433\u043b\u043e\u0441\u0441
p2576
(lp2577
g3
asV\u0433\u0438\u043f\u0435\u0440\u043a\u0430\u043b\u044c\u0446\u0438\u0435\u043c\u0438\u044f
p2578
(lp2579
g3
asV\u043c\u0435\u0433\u043e\u043c\u043c\u0435\u0442\u0440
p2580
(lp2581
g3
asV\u0433\u0438\u0434\u0440\u043e\u0433\u0440\u0430\u0444\u0438\u044f
p2582
(lp2583
g3
asV\u0435\u0443\u0440\u043e\u0432\u0430\u043b\u044e\u0442\u0430
p2584
(lp2585
g3
asV\u0442\u0435\u0445\u043d\u0438\u0446\u0438\u0437\u043c
p2586
(lp2587
g3
asV\u0438\u0434\u0435\u043e\u0444\u043e\u043d
p2588
(lp2589
g3
asV\u0442\u0440\u0430\u0441\u043e\u043b\u043e\u0433\u0438\u044f
p2590
(lp2591
g3
asV\u0433\u0435\u043b\u0438\u043e\u043c\u0435\u0442\u0440
p2592
(lp2593
g3
asV\u0433\u0435\u0442\u0435\u0440\u043e\u0445\u0440\u043e\u043c\u0430\u0442\u0438\u043d
p2594
(lp2595
g3
asV\u0441\u0443\u0431\u0442\u0440\u043e\u043f\u0438\u043a
p2596
(lp2597
g3
asV\u0432\u0430\u043a\u0443\u0443\u043c\u043c\u0435\u0442\u0440\u0438\u044f
p2598
(lp2599
g3
asV\u0431\u0438\u043e\u0433\u0438\u0434\u0440\u043e\u0441\u0444\u0435\u0440\u0430
p2600
(lp2601
g3
asV\u0433\u0438\u0434\u0440\u043e\u043c\u0443\u0444\u0442\u0430
p2602
(lp2603
g3
asV\u043c\u0438\u043a\u0440\u043e\u043c\u0430\u043d\u043e\u043c\u0435\u0442\u0440
p2604
(lp2605
g3
asV\u0438\u043c\u0438\u0434\u0436\u043c\u0435\u0439\u043a\u0435\u0440
p2606
(lp2607
g3
asV\u0432\u0438\u0434\u0435\u043e\u0434\u0438\u0441\u043a
p2608
(lp2609
g3
asV\u0433\u0435\u043c\u0430\u0442\u043e\u043c\u0430
p2610
(lp2611
g3
asV\u0442\u0435\u0440\u0440\u0438\u043a\u043e\u043d
p2612
(lp2613
g3
asV\u0440\u0430\u0431\u0444\u0430\u043a
p2614
(lp2615
g3
asV\u043c\u043e\u043d\u043e\u0444\u0438\u043b\u0438\u044f
p2616
(lp2617
g3
asV\u0430\u043a\u0442\u0438\u043d\u043e\u043b\u0438\u0442
p2618
(lp2619
g3
asV\u0432\u0430\u0440\u0438\u043e\u043c\u0435\u0442\u0440
p2620
(lp2621
g3
asV\u043d\u0435\u043e\u0444\u0430\u0448\u0438\u0437\u043c
p2622
(lp2623
g3
asV\u0442\u0440\u0430\u043d\u043a\u0432\u0438\u043b\u0438\u0437\u0430\u0442\u043e\u0440
p2624
(lp2625
g3
asV\u0433\u0435\u043d\u043e\u0446\u0438\u0434
p2626
(lp2627
g3
asV\u043c\u0430\u0433\u043d\u0438\u0442\u043e\u043c\u0435\u0442\u0440\u0438\u044f
p2628
(lp2629
g3
asV\u0442\u0435\u0445\u043d\u043e\u043b\u043e\u0433
p2630
(lp2631
g3
asV\u044d\u043b\u0435\u043a\u0442\u0440\u043e\u043c\u043e\u0431\u0438\u043b\u044c
p2632
(lp2633
g3
asV\u043c\u0435\u0437\u043e\u0444\u0438\u0442
p2634
(lp2635
g3
asV\u043c\u043e\u043d\u043e\u0442\u043e\u043d\u0438\u044f
p2636
(lp2637
g3
asV\u043c\u0430\u043a\u0440\u043e\u043a\u043e\u043c\u0430\u043d\u0434\u0430
p2638
(lp2639
g3
asV\u043a\u0430\u0440\u0442\u043e\u0433\u0440\u0430\u0444
p2640
(lp2641
g3
asV\u0433\u0435\u043b\u0438\u043e\u044d\u043d\u0435\u0440\u0433\u0435\u0442\u0438\u043a\u0430
p2642
(lp2643
g3
asV\u043c\u0438\u043b\u043b\u0438\u043c\u0435\u0442\u0440
p2644
(lp2645
g3
asV\u0442\u0435\u043b\u0435\u0441\u043f\u0435\u043a\u0442\u0430\u043a\u043b\u044c
p2646
(lp2647
g3
asV\u0442\u0435\u043a\u0441\u0442\u043e\u043b\u0438\u0442
p2648
(lp2649
g3
asV\u0442\u0435\u0440\u043c\u043e\u043f\u0441\u0438\u0441
p2650
(lp2651
g3
asV\u0442\u043e\u043c\u043e\u0433\u0440\u0430\u0444
p2652
(lp2653
g3
asV\u0442\u0435\u0445\u043d\u043e\u043a\u0440\u0430\u0442
p2654
(lp2655
g3
asV\u043c\u043e\u043d\u043e\u0445\u0440\u043e\u043c\u0430\u0442\u0438\u043a\u0430\u043b\u044b
p2656
(lp2657
g3
asV\u043c\u0430\u043a\u0440\u043e\u044d\u043a\u043e\u043d\u043e\u043c\u0438\u043a\u0430
p2658
(lp2659
g3
asV\u0433\u0438\u043f\u0435\u0440\u0442\u0438\u0440\u0435\u043e\u0437
p2660
(lp2661
g3
asV\u044d\u043b\u0435\u043a\u0442\u0440\u043e\u043c\u0435\u0442\u0440
p2662
(lp2663
g3
asV\u0438\u043d\u0430\u0434\u0430\u043f\u0442\u0430\u0446\u0438\u044f
p2664
(lp2665
g3
asV\u043c\u043e\u0440\u0444\u043e\u043c\u0435\u0442\u0440\u0438\u044f
p2666
(lp2667
g3
asV\u0430\u0432\u0430\u043d\u043b\u043e\u0436\u0430
p2668
(lp2669
g3
asV\u043f\u0430\u043b\u0435\u043e\u0433\u043b\u044f\u0446\u0438\u043e\u043b\u043e\u0433\u0438\u044f
p2670
(lp2671
g3
asV\u0434\u0430\u043a\u0442\u0438\u043b\u043e\u043b\u043e\u0433\u0438\u044f
p2672
(lp2673
g3
asV\u0430\u043d\u0442\u0438\u0431\u0438\u043e\u0442\u0438\u043a
p2674
(lp2675
g3
asV\u0441\u043f\u0438\u0440\u043e\u043c\u0435\u0442\u0440
p2676
(lp2677
g3
asV\u0438\u0434\u0438\u043e\u0441\u0438\u043d\u043a\u0440\u0430\u0437\u0438\u044f
p2678
(lp2679
g3
asV\u043a\u0430\u0432\u0435\u0440\u043d\u043e\u0433\u0440\u0430\u043c\u043c\u0430
p2680
(lp2681
g3
asV\u0438\u043a\u043e\u043d\u043e\u0433\u0440\u0430\u0444\u0438\u044f
p2682
(lp2683
g3
asV\u0438\u0435\u0440\u0430\u0440\u0445\u0438\u044f
p2684
(lp2685
g3
asV\u0430\u044d\u0440\u043e\u0444\u043e\u0442\u043e\u0430\u043f\u043f\u0430\u0440\u0430\u0442
p2686
(lp2687
g3
asV\u0442\u043e\u043a\u0441\u0430\u043f\u0438\u043d
p2688
(lp2689
g3
asV\u0442\u0435\u043e\u0434\u043e\u043b\u0438\u0442
p2690
(lp2691
g3
asV\u0430\u043d\u0442\u0438\u0434\u0430\u0440\u0432\u0438\u043d\u0438\u0437\u043c
p2692
(lp2693
g3
asV\u0437\u043e\u043e\u043f\u043b\u0430\u043d\u043a\u0442\u043e\u043d
p2694
(lp2695
g3
asV\u043a\u0432\u0430\u0434\u0440\u0443\u043f\u043e\u043b\u044c
p2696
(lp2697
g3
asV\u0442\u0440\u0438\u043a\u0430\u043b\u044c\u0446\u0438\u0439
p2698
(lp2699
g3
asV\u0438\u0437\u043e\u0441\u0438\u043b\u043b\u0430\u0431\u0438\u0437\u043c
p2700
(lp2701
g3
asV\u044d\u0442\u043d\u043e\u0442\u0435\u0440\u0440\u0438\u0442\u043e\u0440\u0438\u044f
p2702
(lp2703
g3
asV\u0433\u0435\u0442\u0435\u0440\u043e\u0434\u0443\u043f\u043b\u0435\u043a\u0441
p2704
(lp2705
g3
asV\u043f\u043e\u0442\u0435\u043d\u0446\u0438\u043e\u043c\u0435\u0442\u0440
p2706
(lp2707
g3
asV\u0441\u0435\u0433\u043d\u0435\u0442\u043e\u044d\u043b\u0435\u043a\u0442\u0440
p2708
(lp2709
g3
asV\u043c\u0435\u0442\u0438\u043b\u0430\u043c\u0438\u043d
p2710
(lp2711
g3
asV\u0442\u0440\u0435\u0444\u043e\u043d
p2712
(lp2713
g3
asV\u0433\u0438\u0434\u0440\u043e\u0444\u0438\u0442
p2714
(lp2715
g3
asV\u043f\u043e\u043b\u0438\u043c\u0435\u0442\u0430\u043b\u043b
p2716
(lp2717
g3
asV\u0431\u0440\u043e\u043d\u0445\u043e\u044d\u043a\u0442\u0430\u0437\u0438\u044f
p2718
(lp2719
g3
asV\u0438\u043d\u0442\u0435\u0440\u0431\u0430\u043d\u043a
p2720
(lp2721
g3
asV\u0444\u0430\u0437\u043e\u0442\u0440\u043e\u043d
p2722
(lp2723
g3
asV\u0442\u0435\u0442\u0440\u0438\u043b
p2724
(lp2725
g3
asV\u0442\u0435\u0440\u043c\u043e\u043a\u0430\u0440\u0441\u0442
p2726
(lp2727
g3
asV\u043f\u0430\u043b\u0435\u043e\u0442\u0438\u043f
p2728
(lp2729
g3
asV\u044d\u043a\u043e\u043d\u043e\u043c\u0435\u0442\u0440\u0438\u043a\u0430
p2730
(lp2731
g3
asV\u0433\u0438\u0434\u0440\u043e\u0448\u0430\u0445\u0442\u0430
p2732
(lp2733
g3
asV\u0433\u0435\u043e\u043c\u0435\u0440\u0438\u0434\u0430
p2734
(lp2735
g3
asV\u0433\u0438\u0434\u0440\u043e\u0433\u0435\u043d\u0435\u0440\u0430\u0442\u043e\u0440
p2736
(lp2737
g3
asV\u0440\u0430\u0434\u0438\u043e\u0433\u0438\u0434\u0440\u043e\u0433\u0435\u043e\u043b\u043e\u0433\u0438\u044f
p2738
(lp2739
g3
asV\u0444\u043e\u0442\u043e\u0430\u0442\u0435\u043b\u044c\u0435
p2740
(lp2741
g3
asV\u0433\u0435\u043c\u043e\u0433\u043b\u043e\u0431\u0438\u043d
p2742
(lp2743
g3
asV\u044d\u0442\u043d\u043e\u044d\u0433\u043e\u0438\u0437\u043c
p2744
(lp2745
g3
asV\u0434\u0435\u0440\u043c\u0430\u0442\u043e\u043c\u0438\u043a\u043e\u0437
p2746
(lp2747
g3
asV\u043c\u0438\u043a\u0440\u043e\u043a\u0430\u0440\u0442\u0430
p2748
(lp2749
g3
asV\u0442\u0435\u043c\u043f\u0435\u0440\u0430
p2750
(lp2751
g3
asV\u0433\u0435\u043e\u044d\u043a\u043e\u043b\u043e\u0433\u0438\u044f
p2752
(lp2753
g3
asV\u0433\u0438\u0434\u0440\u043e\u044d\u043d\u0435\u0440\u0433\u0438\u044f
p2754
(lp2755
g3
asV\u0442\u0443\u0440\u0431\u043e\u043a\u043e\u043c\u043f\u0440\u0435\u0441\u0441\u043e\u0440
p2756
(lp2757
g3
asV\u043c\u0430\u043a\u0440\u043e\u043f\u0441\u0438\u044f
p2758
(lp2759
g3
asV\u043a\u0430\u043b\u043e\u0440\u0438\u043c\u0435\u0442\u0440\u0438\u044f
p2760
(lp2761
g3
asV\u0430\u043b\u043b\u043e\u043f\u0430\u0442\u0440\u0438\u044f
p2762
(lp2763
g3
asV\u0442\u0435\u043a\u0441\u0442\u043e\u0432\u0438\u043d\u0438\u0442
p2764
(lp2765
g3
asV\u0433\u043b\u0438\u043a\u0435\u043c\u0438\u044f
p2766
(lp2767
g3
asV\u0430\u0432\u0442\u043e\u043c\u0435\u0445\u0430\u043d\u0438\u043a
p2768
(lp2769
g3
asV\u0446\u0438\u0442\u043e\u043f\u043b\u0430\u0437\u043c\u0430
p2770
(lp2771
g3
asV\u043d\u0435\u043e\u043a\u043e\u043d\u0441\u0435\u0440\u0432\u0430\u0442\u0438\u0437\u043c
p2772
(lp2773
g3
asV\u0433\u0438\u0434\u0440\u043e\u043d\u0438\u043c
p2774
(lp2775
g3
asV\u0446\u0438\u0442\u043e\u044d\u043a\u043e\u043b\u043e\u0433\u0438\u044f
p2776
(lp2777
g3
asV\u0433\u0438\u043f\u043e\u0434\u0438\u043d\u0430\u043c\u0438\u044f
p2778
(lp2779
g3
asV\u0433\u0430\u043b\u043e\u0433\u0435\u043d
p2780
(lp2781
g3
asV\u043c\u043e\u0440\u0444\u043e\u043d\u0435\u043c\u0430
p2782
(lp2783
g3
asV\u043d\u0435\u0439\u0440\u043e\u043f\u0441\u0438\u0445\u0438\u0430\u0442\u0440\u0438\u044f
p2784
(lp2785
g3
asV\u043a\u0430\u0439\u043d\u043e\u0437\u043e\u0439
p2786
(lp2787
g3
asV\u044d\u0442\u0438\u043b\u0435\u043d\u0433\u043b\u0438\u043a\u043e\u043b\u044c
p2788
(lp2789
g3
asV\u0433\u043b\u0438\u043e\u0446\u0438\u0442
p2790
(lp2791
g3
asV\u0438\u0437\u043e\u043b\u0435\u0439\u0446\u0438\u043d
p2792
(lp2793
g3
asV\u043c\u0438\u043e\u0433\u0440\u0430\u0444\u0438\u044f
p2794
(lp2795
g3
asV\u0433\u0435\u0442\u0435\u0440\u043e\u0433\u0430\u043c\u0438\u044f
p2796
(lp2797
g3
asV\u0438\u043d\u0442\u0440\u043e\u0432\u0435\u0440\u0441\u0438\u044f
p2798
(lp2799
g3
asV\u0441\u0438\u043d\u0445\u0440\u043e\u043c\u0430\u0440\u043a\u0435\u0442\u0438\u043d\u0433
p2800
(lp2801
g3
asV\u0438\u0445\u0442\u0438\u043e\u043b
p2802
(lp2803
g3
asV\u043f\u043e\u043b\u0438\u043c\u0435\u0440\u0431\u0435\u0442\u043e\u043d
p2804
(lp2805
g3
asV\u0442\u0440\u0438\u0430\u0442\u043b\u043e\u043d
p2806
(lp2807
g3
asV\u0430\u0440\u0435\u043e\u043c\u0435\u0442\u0440
p2808
(lp2809
g3
as.